ARM GAS  C:\Users\valer\AppData\Local\Temp\ccrpxCKl.s 			page 1


   1              		.cpu cortex-m4
   2              		.arch armv7e-m
   3              		.fpu fpv4-sp-d16
   4              		.eabi_attribute 27, 1
   5              		.eabi_attribute 28, 1
   6              		.eabi_attribute 20, 1
   7              		.eabi_attribute 21, 1
   8              		.eabi_attribute 23, 3
   9              		.eabi_attribute 24, 1
  10              		.eabi_attribute 25, 1
  11              		.eabi_attribute 26, 1
  12              		.eabi_attribute 30, 1
  13              		.eabi_attribute 34, 1
  14              		.eabi_attribute 18, 4
  15              		.file	"cli_controller.c"
  16              		.text
  17              	.Ltext0:
  18              		.cfi_sections	.debug_frame
  19              		.file 1 "Core/Src/cli_controller.c"
  20              		.section	.text.CLI_Init,"ax",%progbits
  21              		.align	1
  22              		.global	CLI_Init
  23              		.syntax unified
  24              		.thumb
  25              		.thumb_func
  27              	CLI_Init:
  28              	.LFB242:
   1:Core/Src/cli_controller.c **** #include "cli_controller.h"
   2:Core/Src/cli_controller.c **** #include <stdio.h>
   3:Core/Src/cli_controller.c **** #include <string.h>
   4:Core/Src/cli_controller.c **** #include "main.h"
   5:Core/Src/cli_controller.c **** 
   6:Core/Src/cli_controller.c **** char cli_buffer[CLI_BUFFER_SIZE];
   7:Core/Src/cli_controller.c **** uint8_t cli_index = 0;
   8:Core/Src/cli_controller.c **** volatile char receivedChar;
   9:Core/Src/cli_controller.c **** extern UART_HandleTypeDef huart2;
  10:Core/Src/cli_controller.c **** 
  11:Core/Src/cli_controller.c **** // Funzione per inizializzare la CLI
  12:Core/Src/cli_controller.c **** void CLI_Init(void)
  13:Core/Src/cli_controller.c **** {
  29              		.loc 1 13 1 view -0
  30              		.cfi_startproc
  31              		@ args = 0, pretend = 0, frame = 0
  32              		@ frame_needed = 0, uses_anonymous_args = 0
  33 0000 10B5     		push	{r4, lr}
  34              		.cfi_def_cfa_offset 8
  35              		.cfi_offset 4, -8
  36              		.cfi_offset 14, -4
  14:Core/Src/cli_controller.c ****     memset(cli_buffer, 0, CLI_BUFFER_SIZE);
  37              		.loc 1 14 5 view .LVU1
  38 0002 6422     		movs	r2, #100
  39 0004 0021     		movs	r1, #0
  40 0006 0748     		ldr	r0, .L3
  41 0008 FFF7FEFF 		bl	memset
  42              	.LVL0:
  15:Core/Src/cli_controller.c ****     HAL_UART_Receive_IT(&huart2, (uint8_t*)&receivedChar, 1);
  43              		.loc 1 15 5 view .LVU2
ARM GAS  C:\Users\valer\AppData\Local\Temp\ccrpxCKl.s 			page 2


  44 000c 064C     		ldr	r4, .L3+4
  45 000e 0122     		movs	r2, #1
  46 0010 0649     		ldr	r1, .L3+8
  47 0012 2046     		mov	r0, r4
  48 0014 FFF7FEFF 		bl	HAL_UART_Receive_IT
  49              	.LVL1:
  16:Core/Src/cli_controller.c ****   __HAL_UART_ENABLE_IT(&huart2, UART_IT_RXNE);
  50              		.loc 1 16 3 view .LVU3
  51 0018 2268     		ldr	r2, [r4]
  52 001a D368     		ldr	r3, [r2, #12]
  53 001c 43F02003 		orr	r3, r3, #32
  54 0020 D360     		str	r3, [r2, #12]
  17:Core/Src/cli_controller.c **** }
  55              		.loc 1 17 1 is_stmt 0 view .LVU4
  56 0022 10BD     		pop	{r4, pc}
  57              	.L4:
  58              		.align	2
  59              	.L3:
  60 0024 00000000 		.word	cli_buffer
  61 0028 00000000 		.word	huart2
  62 002c 00000000 		.word	receivedChar
  63              		.cfi_endproc
  64              	.LFE242:
  66              		.section	.rodata.CLI_Command_Raw.str1.4,"aMS",%progbits,1
  67              		.align	2
  68              	.LC0:
  69 0000 636F6D61 		.ascii	"comando raw ricevuto\015\012\000"
  69      6E646F20 
  69      72617720 
  69      72696365 
  69      7675746F 
  70              		.section	.text.CLI_Command_Raw,"ax",%progbits
  71              		.align	1
  72              		.global	CLI_Command_Raw
  73              		.syntax unified
  74              		.thumb
  75              		.thumb_func
  77              	CLI_Command_Raw:
  78              	.LFB244:
  18:Core/Src/cli_controller.c **** 
  19:Core/Src/cli_controller.c **** // Funzione per processare i comandi
  20:Core/Src/cli_controller.c **** void CLI_ProcessCommand(char *command)
  21:Core/Src/cli_controller.c **** {
  22:Core/Src/cli_controller.c ****     if (strcmp(command, "raw") == 0)
  23:Core/Src/cli_controller.c ****     {
  24:Core/Src/cli_controller.c ****         CLI_Command_Raw();
  25:Core/Src/cli_controller.c ****     }
  26:Core/Src/cli_controller.c ****     else if (strcmp(command, "moving average") == 0)
  27:Core/Src/cli_controller.c ****     {
  28:Core/Src/cli_controller.c ****         CLI_Command_Filter();
  29:Core/Src/cli_controller.c ****     }
  30:Core/Src/cli_controller.c ****     else if (strcmp(command, "random noise") == 0)
  31:Core/Src/cli_controller.c ****     {
  32:Core/Src/cli_controller.c ****         CLI_Command_Noise();
  33:Core/Src/cli_controller.c ****     }
  34:Core/Src/cli_controller.c ****     else
  35:Core/Src/cli_controller.c ****     {
ARM GAS  C:\Users\valer\AppData\Local\Temp\ccrpxCKl.s 			page 3


  36:Core/Src/cli_controller.c ****         printf("Unknown command: %s\n", command);
  37:Core/Src/cli_controller.c ****     }
  38:Core/Src/cli_controller.c **** }
  39:Core/Src/cli_controller.c **** 
  40:Core/Src/cli_controller.c **** // Funzione per il comando "raw" (disabilita i filtri)
  41:Core/Src/cli_controller.c **** void CLI_Command_Raw(void)
  42:Core/Src/cli_controller.c **** {
  79              		.loc 1 42 1 is_stmt 1 view -0
  80              		.cfi_startproc
  81              		@ args = 0, pretend = 0, frame = 0
  82              		@ frame_needed = 0, uses_anonymous_args = 0
  83 0000 08B5     		push	{r3, lr}
  84              		.cfi_def_cfa_offset 8
  85              		.cfi_offset 3, -8
  86              		.cfi_offset 14, -4
  43:Core/Src/cli_controller.c ****     HAL_UART_Transmit(&huart2, (uint8_t*)("comando raw ricevuto\r\n"), strlen("comando raw ricevuto
  87              		.loc 1 43 5 view .LVU6
  88 0002 4FF0FF33 		mov	r3, #-1
  89 0006 1622     		movs	r2, #22
  90 0008 0249     		ldr	r1, .L7
  91 000a 0348     		ldr	r0, .L7+4
  92 000c FFF7FEFF 		bl	HAL_UART_Transmit
  93              	.LVL2:
  44:Core/Src/cli_controller.c ****     // Disabilita eventuali filtri applicati ai dati
  45:Core/Src/cli_controller.c ****     // Codice per disabilitare i filtri
  46:Core/Src/cli_controller.c **** }
  94              		.loc 1 46 1 is_stmt 0 view .LVU7
  95 0010 08BD     		pop	{r3, pc}
  96              	.L8:
  97 0012 00BF     		.align	2
  98              	.L7:
  99 0014 00000000 		.word	.LC0
 100 0018 00000000 		.word	huart2
 101              		.cfi_endproc
 102              	.LFE244:
 104              		.section	.rodata.CLI_Command_Filter.str1.4,"aMS",%progbits,1
 105              		.align	2
 106              	.LC1:
 107 0000 636F6D61 		.ascii	"comando moving average ricevuto\015\012\000"
 107      6E646F20 
 107      6D6F7669 
 107      6E672061 
 107      76657261 
 108              		.section	.text.CLI_Command_Filter,"ax",%progbits
 109              		.align	1
 110              		.global	CLI_Command_Filter
 111              		.syntax unified
 112              		.thumb
 113              		.thumb_func
 115              	CLI_Command_Filter:
 116              	.LFB245:
  47:Core/Src/cli_controller.c **** 
  48:Core/Src/cli_controller.c **** // Funzione per il comando "filter" (abilita un filtro)
  49:Core/Src/cli_controller.c **** void CLI_Command_Filter(void)
  50:Core/Src/cli_controller.c **** {
 117              		.loc 1 50 1 is_stmt 1 view -0
 118              		.cfi_startproc
ARM GAS  C:\Users\valer\AppData\Local\Temp\ccrpxCKl.s 			page 4


 119              		@ args = 0, pretend = 0, frame = 0
 120              		@ frame_needed = 0, uses_anonymous_args = 0
 121 0000 08B5     		push	{r3, lr}
 122              		.cfi_def_cfa_offset 8
 123              		.cfi_offset 3, -8
 124              		.cfi_offset 14, -4
  51:Core/Src/cli_controller.c ****     HAL_UART_Transmit(&huart2, (uint8_t*)("comando moving average ricevuto\r\n"), strlen("comando c
 125              		.loc 1 51 5 view .LVU9
 126 0002 4FF0FF33 		mov	r3, #-1
 127 0006 2122     		movs	r2, #33
 128 0008 0249     		ldr	r1, .L11
 129 000a 0348     		ldr	r0, .L11+4
 130 000c FFF7FEFF 		bl	HAL_UART_Transmit
 131              	.LVL3:
  52:Core/Src/cli_controller.c ****     // Abilita un filtro ai dati del sensore
  53:Core/Src/cli_controller.c ****     // Codice per abilitare il filtro
  54:Core/Src/cli_controller.c **** }
 132              		.loc 1 54 1 is_stmt 0 view .LVU10
 133 0010 08BD     		pop	{r3, pc}
 134              	.L12:
 135 0012 00BF     		.align	2
 136              	.L11:
 137 0014 00000000 		.word	.LC1
 138 0018 00000000 		.word	huart2
 139              		.cfi_endproc
 140              	.LFE245:
 142              		.section	.rodata.CLI_Command_Noise.str1.4,"aMS",%progbits,1
 143              		.align	2
 144              	.LC2:
 145 0000 636F6D61 		.ascii	"comando random noise ricevuto\015\012\000"
 145      6E646F20 
 145      72616E64 
 145      6F6D206E 
 145      6F697365 
 146              		.section	.text.CLI_Command_Noise,"ax",%progbits
 147              		.align	1
 148              		.global	CLI_Command_Noise
 149              		.syntax unified
 150              		.thumb
 151              		.thumb_func
 153              	CLI_Command_Noise:
 154              	.LFB246:
  55:Core/Src/cli_controller.c **** 
  56:Core/Src/cli_controller.c **** // Funzione per il comando "noise" (genera rumore randomico)
  57:Core/Src/cli_controller.c **** void CLI_Command_Noise(void)
  58:Core/Src/cli_controller.c **** {
 155              		.loc 1 58 1 is_stmt 1 view -0
 156              		.cfi_startproc
 157              		@ args = 0, pretend = 0, frame = 0
 158              		@ frame_needed = 0, uses_anonymous_args = 0
 159 0000 08B5     		push	{r3, lr}
 160              		.cfi_def_cfa_offset 8
 161              		.cfi_offset 3, -8
 162              		.cfi_offset 14, -4
  59:Core/Src/cli_controller.c ****     HAL_UART_Transmit(&huart2, (uint8_t*)("comando random noise ricevuto\r\n"), strlen("comando ran
 163              		.loc 1 59 5 view .LVU12
 164 0002 4FF0FF33 		mov	r3, #-1
ARM GAS  C:\Users\valer\AppData\Local\Temp\ccrpxCKl.s 			page 5


 165 0006 1F22     		movs	r2, #31
 166 0008 0249     		ldr	r1, .L15
 167 000a 0348     		ldr	r0, .L15+4
 168 000c FFF7FEFF 		bl	HAL_UART_Transmit
 169              	.LVL4:
  60:Core/Src/cli_controller.c ****     // Codice per generare rumore randomico
  61:Core/Src/cli_controller.c **** }
 170              		.loc 1 61 1 is_stmt 0 view .LVU13
 171 0010 08BD     		pop	{r3, pc}
 172              	.L16:
 173 0012 00BF     		.align	2
 174              	.L15:
 175 0014 00000000 		.word	.LC2
 176 0018 00000000 		.word	huart2
 177              		.cfi_endproc
 178              	.LFE246:
 180              		.section	.rodata.CLI_ProcessCommand.str1.4,"aMS",%progbits,1
 181              		.align	2
 182              	.LC3:
 183 0000 72617700 		.ascii	"raw\000"
 184              		.align	2
 185              	.LC4:
 186 0004 6D6F7669 		.ascii	"moving average\000"
 186      6E672061 
 186      76657261 
 186      676500
 187 0013 00       		.align	2
 188              	.LC5:
 189 0014 72616E64 		.ascii	"random noise\000"
 189      6F6D206E 
 189      6F697365 
 189      00
 190 0021 000000   		.align	2
 191              	.LC6:
 192 0024 556E6B6E 		.ascii	"Unknown command: %s\012\000"
 192      6F776E20 
 192      636F6D6D 
 192      616E643A 
 192      2025730A 
 193              		.section	.text.CLI_ProcessCommand,"ax",%progbits
 194              		.align	1
 195              		.global	CLI_ProcessCommand
 196              		.syntax unified
 197              		.thumb
 198              		.thumb_func
 200              	CLI_ProcessCommand:
 201              	.LVL5:
 202              	.LFB243:
  21:Core/Src/cli_controller.c ****     if (strcmp(command, "raw") == 0)
 203              		.loc 1 21 1 is_stmt 1 view -0
 204              		.cfi_startproc
 205              		@ args = 0, pretend = 0, frame = 0
 206              		@ frame_needed = 0, uses_anonymous_args = 0
  21:Core/Src/cli_controller.c ****     if (strcmp(command, "raw") == 0)
 207              		.loc 1 21 1 is_stmt 0 view .LVU15
 208 0000 10B5     		push	{r4, lr}
 209              		.cfi_def_cfa_offset 8
ARM GAS  C:\Users\valer\AppData\Local\Temp\ccrpxCKl.s 			page 6


 210              		.cfi_offset 4, -8
 211              		.cfi_offset 14, -4
 212 0002 0446     		mov	r4, r0
  22:Core/Src/cli_controller.c ****     {
 213              		.loc 1 22 5 is_stmt 1 view .LVU16
  22:Core/Src/cli_controller.c ****     {
 214              		.loc 1 22 9 is_stmt 0 view .LVU17
 215 0004 0D49     		ldr	r1, .L25
 216 0006 FFF7FEFF 		bl	strcmp
 217              	.LVL6:
  22:Core/Src/cli_controller.c ****     {
 218              		.loc 1 22 8 discriminator 1 view .LVU18
 219 000a 60B1     		cbz	r0, .L23
  26:Core/Src/cli_controller.c ****     {
 220              		.loc 1 26 10 is_stmt 1 view .LVU19
  26:Core/Src/cli_controller.c ****     {
 221              		.loc 1 26 14 is_stmt 0 view .LVU20
 222 000c 0C49     		ldr	r1, .L25+4
 223 000e 2046     		mov	r0, r4
 224 0010 FFF7FEFF 		bl	strcmp
 225              	.LVL7:
  26:Core/Src/cli_controller.c ****     {
 226              		.loc 1 26 13 discriminator 1 view .LVU21
 227 0014 50B1     		cbz	r0, .L24
  30:Core/Src/cli_controller.c ****     {
 228              		.loc 1 30 10 is_stmt 1 view .LVU22
  30:Core/Src/cli_controller.c ****     {
 229              		.loc 1 30 14 is_stmt 0 view .LVU23
 230 0016 0B49     		ldr	r1, .L25+8
 231 0018 2046     		mov	r0, r4
 232 001a FFF7FEFF 		bl	strcmp
 233              	.LVL8:
  30:Core/Src/cli_controller.c ****     {
 234              		.loc 1 30 13 discriminator 1 view .LVU24
 235 001e 40B9     		cbnz	r0, .L21
  32:Core/Src/cli_controller.c ****     }
 236              		.loc 1 32 9 is_stmt 1 view .LVU25
 237 0020 FFF7FEFF 		bl	CLI_Command_Noise
 238              	.LVL9:
 239 0024 01E0     		b	.L17
 240              	.L23:
  24:Core/Src/cli_controller.c ****     }
 241              		.loc 1 24 9 view .LVU26
 242 0026 FFF7FEFF 		bl	CLI_Command_Raw
 243              	.LVL10:
 244              	.L17:
  38:Core/Src/cli_controller.c **** 
 245              		.loc 1 38 1 is_stmt 0 view .LVU27
 246 002a 10BD     		pop	{r4, pc}
 247              	.LVL11:
 248              	.L24:
  28:Core/Src/cli_controller.c ****     }
 249              		.loc 1 28 9 is_stmt 1 view .LVU28
 250 002c FFF7FEFF 		bl	CLI_Command_Filter
 251              	.LVL12:
 252 0030 FBE7     		b	.L17
 253              	.L21:
ARM GAS  C:\Users\valer\AppData\Local\Temp\ccrpxCKl.s 			page 7


  36:Core/Src/cli_controller.c ****     }
 254              		.loc 1 36 9 view .LVU29
 255 0032 2146     		mov	r1, r4
 256 0034 0448     		ldr	r0, .L25+12
 257 0036 FFF7FEFF 		bl	printf
 258              	.LVL13:
  38:Core/Src/cli_controller.c **** 
 259              		.loc 1 38 1 is_stmt 0 view .LVU30
 260 003a F6E7     		b	.L17
 261              	.L26:
 262              		.align	2
 263              	.L25:
 264 003c 00000000 		.word	.LC3
 265 0040 04000000 		.word	.LC4
 266 0044 14000000 		.word	.LC5
 267 0048 24000000 		.word	.LC6
 268              		.cfi_endproc
 269              	.LFE243:
 271              		.global	receivedChar
 272              		.section	.bss.receivedChar,"aw",%nobits
 275              	receivedChar:
 276 0000 00       		.space	1
 277              		.global	cli_index
 278              		.section	.bss.cli_index,"aw",%nobits
 281              	cli_index:
 282 0000 00       		.space	1
 283              		.global	cli_buffer
 284              		.section	.bss.cli_buffer,"aw",%nobits
 285              		.align	2
 288              	cli_buffer:
 289 0000 00000000 		.space	100
 289      00000000 
 289      00000000 
 289      00000000 
 289      00000000 
 290              		.text
 291              	.Letext0:
 292              		.file 2 "C:/Users/valer/AppData/Roaming/Code/User/globalStorage/bmd.stm32-for-vscode/@xpack-dev-to
 293              		.file 3 "C:/Users/valer/AppData/Roaming/Code/User/globalStorage/bmd.stm32-for-vscode/@xpack-dev-to
 294              		.file 4 "Core/Inc/cli_controller.h"
 295              		.file 5 "C:/Users/valer/AppData/Roaming/Code/User/globalStorage/bmd.stm32-for-vscode/@xpack-dev-to
 296              		.file 6 "Drivers/CMSIS/Device/ST/STM32F4xx/Include/stm32f446xx.h"
 297              		.file 7 "Drivers/STM32F4xx_HAL_Driver/Inc/stm32f4xx_hal_def.h"
 298              		.file 8 "Drivers/STM32F4xx_HAL_Driver/Inc/stm32f4xx_hal_dma.h"
 299              		.file 9 "Drivers/STM32F4xx_HAL_Driver/Inc/stm32f4xx_hal_uart.h"
 300              		.file 10 "C:/Users/valer/AppData/Roaming/Code/User/globalStorage/bmd.stm32-for-vscode/@xpack-dev-t
 301              		.file 11 "C:/Users/valer/AppData/Roaming/Code/User/globalStorage/bmd.stm32-for-vscode/@xpack-dev-t
 302              		.file 12 "<built-in>"
ARM GAS  C:\Users\valer\AppData\Local\Temp\ccrpxCKl.s 			page 8

