ARM GAS  C:\Users\valer\AppData\Local\Temp\ccJKkpr7.s 			page 1


   1              		.cpu cortex-m4
   2              		.arch armv7e-m
   3              		.fpu fpv4-sp-d16
   4              		.eabi_attribute 27, 1
   5              		.eabi_attribute 28, 1
   6              		.eabi_attribute 20, 1
   7              		.eabi_attribute 21, 1
   8              		.eabi_attribute 23, 3
   9              		.eabi_attribute 24, 1
  10              		.eabi_attribute 25, 1
  11              		.eabi_attribute 26, 1
  12              		.eabi_attribute 30, 1
  13              		.eabi_attribute 34, 1
  14              		.eabi_attribute 18, 4
  15              		.file	"stm32f4xx_it.c"
  16              		.text
  17              	.Ltext0:
  18              		.cfi_sections	.debug_frame
  19              		.file 1 "Core/Src/stm32f4xx_it.c"
  20              		.section	.text.NMI_Handler,"ax",%progbits
  21              		.align	1
  22              		.global	NMI_Handler
  23              		.syntax unified
  24              		.thumb
  25              		.thumb_func
  27              	NMI_Handler:
  28              	.LFB242:
   1:Core/Src/stm32f4xx_it.c **** /* USER CODE BEGIN Header */
   2:Core/Src/stm32f4xx_it.c **** /**
   3:Core/Src/stm32f4xx_it.c ****   ******************************************************************************
   4:Core/Src/stm32f4xx_it.c ****   * @file    stm32f4xx_it.c
   5:Core/Src/stm32f4xx_it.c ****   * @brief   Interrupt Service Routines.
   6:Core/Src/stm32f4xx_it.c ****   ******************************************************************************
   7:Core/Src/stm32f4xx_it.c ****   * @attention
   8:Core/Src/stm32f4xx_it.c ****   *
   9:Core/Src/stm32f4xx_it.c ****   * Copyright (c) 2024 STMicroelectronics.
  10:Core/Src/stm32f4xx_it.c ****   * All rights reserved.
  11:Core/Src/stm32f4xx_it.c ****   *
  12:Core/Src/stm32f4xx_it.c ****   * This software is licensed under terms that can be found in the LICENSE file
  13:Core/Src/stm32f4xx_it.c ****   * in the root directory of this software component.
  14:Core/Src/stm32f4xx_it.c ****   * If no LICENSE file comes with this software, it is provided AS-IS.
  15:Core/Src/stm32f4xx_it.c ****   *
  16:Core/Src/stm32f4xx_it.c ****   ******************************************************************************
  17:Core/Src/stm32f4xx_it.c ****   */
  18:Core/Src/stm32f4xx_it.c **** /* USER CODE END Header */
  19:Core/Src/stm32f4xx_it.c **** 
  20:Core/Src/stm32f4xx_it.c **** /* Includes ------------------------------------------------------------------*/
  21:Core/Src/stm32f4xx_it.c **** #include "main.h"
  22:Core/Src/stm32f4xx_it.c **** #include "stm32f4xx_it.h"
  23:Core/Src/stm32f4xx_it.c **** /* Private includes ----------------------------------------------------------*/
  24:Core/Src/stm32f4xx_it.c **** /* USER CODE BEGIN Includes */
  25:Core/Src/stm32f4xx_it.c **** #include <stdio.h>
  26:Core/Src/stm32f4xx_it.c **** #include <string.h>
  27:Core/Src/stm32f4xx_it.c **** /* USER CODE END Includes */
  28:Core/Src/stm32f4xx_it.c **** 
  29:Core/Src/stm32f4xx_it.c **** /* Private typedef -----------------------------------------------------------*/
  30:Core/Src/stm32f4xx_it.c **** /* USER CODE BEGIN TD */
ARM GAS  C:\Users\valer\AppData\Local\Temp\ccJKkpr7.s 			page 2


  31:Core/Src/stm32f4xx_it.c **** 
  32:Core/Src/stm32f4xx_it.c **** /* USER CODE END TD */
  33:Core/Src/stm32f4xx_it.c **** 
  34:Core/Src/stm32f4xx_it.c **** /* Private define ------------------------------------------------------------*/
  35:Core/Src/stm32f4xx_it.c **** /* USER CODE BEGIN PD */
  36:Core/Src/stm32f4xx_it.c **** 
  37:Core/Src/stm32f4xx_it.c **** /* USER CODE END PD */
  38:Core/Src/stm32f4xx_it.c **** 
  39:Core/Src/stm32f4xx_it.c **** /* Private macro -------------------------------------------------------------*/
  40:Core/Src/stm32f4xx_it.c **** /* USER CODE BEGIN PM */
  41:Core/Src/stm32f4xx_it.c **** 
  42:Core/Src/stm32f4xx_it.c **** /* USER CODE END PM */
  43:Core/Src/stm32f4xx_it.c **** 
  44:Core/Src/stm32f4xx_it.c **** /* Private variables ---------------------------------------------------------*/
  45:Core/Src/stm32f4xx_it.c **** /* USER CODE BEGIN PV */
  46:Core/Src/stm32f4xx_it.c **** int led_state = 0;
  47:Core/Src/stm32f4xx_it.c **** int is_magnet_detected;  
  48:Core/Src/stm32f4xx_it.c **** /* USER CODE END PV */
  49:Core/Src/stm32f4xx_it.c **** 
  50:Core/Src/stm32f4xx_it.c **** /* Private function prototypes -----------------------------------------------*/
  51:Core/Src/stm32f4xx_it.c **** /* USER CODE BEGIN PFP */
  52:Core/Src/stm32f4xx_it.c **** 
  53:Core/Src/stm32f4xx_it.c **** /* USER CODE END PFP */
  54:Core/Src/stm32f4xx_it.c **** 
  55:Core/Src/stm32f4xx_it.c **** /* Private user code ---------------------------------------------------------*/
  56:Core/Src/stm32f4xx_it.c **** /* USER CODE BEGIN 0 */
  57:Core/Src/stm32f4xx_it.c **** 
  58:Core/Src/stm32f4xx_it.c **** /* USER CODE END 0 */
  59:Core/Src/stm32f4xx_it.c **** 
  60:Core/Src/stm32f4xx_it.c **** /* External variables --------------------------------------------------------*/
  61:Core/Src/stm32f4xx_it.c **** extern DMA_HandleTypeDef hdma_adc1;
  62:Core/Src/stm32f4xx_it.c **** extern TIM_HandleTypeDef htim2;
  63:Core/Src/stm32f4xx_it.c **** extern TIM_HandleTypeDef htim3;
  64:Core/Src/stm32f4xx_it.c **** extern UART_HandleTypeDef huart2;  
  65:Core/Src/stm32f4xx_it.c **** extern ADC_HandleTypeDef hadc1;  
  66:Core/Src/stm32f4xx_it.c **** extern FsmController fsm;
  67:Core/Src/stm32f4xx_it.c **** /* USER CODE BEGIN EV */
  68:Core/Src/stm32f4xx_it.c **** 
  69:Core/Src/stm32f4xx_it.c **** /* USER CODE END EV */
  70:Core/Src/stm32f4xx_it.c **** 
  71:Core/Src/stm32f4xx_it.c **** /******************************************************************************/
  72:Core/Src/stm32f4xx_it.c **** /*           Cortex-M4 Processor Interruption and Exception Handlers          */
  73:Core/Src/stm32f4xx_it.c **** /******************************************************************************/
  74:Core/Src/stm32f4xx_it.c **** /**
  75:Core/Src/stm32f4xx_it.c ****   * @brief This function handles Non maskable interrupt.
  76:Core/Src/stm32f4xx_it.c ****   */
  77:Core/Src/stm32f4xx_it.c **** void NMI_Handler(void)
  78:Core/Src/stm32f4xx_it.c **** {
  29              		.loc 1 78 1 view -0
  30              		.cfi_startproc
  31              		@ Volatile: function does not return.
  32              		@ args = 0, pretend = 0, frame = 0
  33              		@ frame_needed = 0, uses_anonymous_args = 0
  34              		@ link register save eliminated.
  35              	.L2:
  79:Core/Src/stm32f4xx_it.c ****   /* USER CODE BEGIN NonMaskableInt_IRQn 0 */
  80:Core/Src/stm32f4xx_it.c **** 
ARM GAS  C:\Users\valer\AppData\Local\Temp\ccJKkpr7.s 			page 3


  81:Core/Src/stm32f4xx_it.c ****   /* USER CODE END NonMaskableInt_IRQn 0 */
  82:Core/Src/stm32f4xx_it.c ****   /* USER CODE BEGIN NonMaskableInt_IRQn 1 */
  83:Core/Src/stm32f4xx_it.c ****    while (1)
  36              		.loc 1 83 4 view .LVU1
  84:Core/Src/stm32f4xx_it.c ****   {
  85:Core/Src/stm32f4xx_it.c ****   }
  37              		.loc 1 85 3 view .LVU2
  83:Core/Src/stm32f4xx_it.c ****   {
  38              		.loc 1 83 10 view .LVU3
  39 0000 FEE7     		b	.L2
  40              		.cfi_endproc
  41              	.LFE242:
  43              		.section	.text.HardFault_Handler,"ax",%progbits
  44              		.align	1
  45              		.global	HardFault_Handler
  46              		.syntax unified
  47              		.thumb
  48              		.thumb_func
  50              	HardFault_Handler:
  51              	.LFB243:
  86:Core/Src/stm32f4xx_it.c ****   /* USER CODE END NonMaskableInt_IRQn 1 */
  87:Core/Src/stm32f4xx_it.c **** }
  88:Core/Src/stm32f4xx_it.c **** 
  89:Core/Src/stm32f4xx_it.c **** /**
  90:Core/Src/stm32f4xx_it.c ****   * @brief This function handles Hard fault interrupt.
  91:Core/Src/stm32f4xx_it.c ****   */
  92:Core/Src/stm32f4xx_it.c **** void HardFault_Handler(void)
  93:Core/Src/stm32f4xx_it.c **** {
  52              		.loc 1 93 1 view -0
  53              		.cfi_startproc
  54              		@ Volatile: function does not return.
  55              		@ args = 0, pretend = 0, frame = 0
  56              		@ frame_needed = 0, uses_anonymous_args = 0
  57              		@ link register save eliminated.
  58              	.L4:
  94:Core/Src/stm32f4xx_it.c ****   /* USER CODE BEGIN HardFault_IRQn 0 */
  95:Core/Src/stm32f4xx_it.c **** 
  96:Core/Src/stm32f4xx_it.c ****   /* USER CODE END HardFault_IRQn 0 */
  97:Core/Src/stm32f4xx_it.c ****   while (1)
  59              		.loc 1 97 3 view .LVU5
  98:Core/Src/stm32f4xx_it.c ****   {
  99:Core/Src/stm32f4xx_it.c ****     /* USER CODE BEGIN W1_HardFault_IRQn 0 */
 100:Core/Src/stm32f4xx_it.c ****     /* USER CODE END W1_HardFault_IRQn 0 */
 101:Core/Src/stm32f4xx_it.c ****   }
  60              		.loc 1 101 3 view .LVU6
  97:Core/Src/stm32f4xx_it.c ****   {
  61              		.loc 1 97 9 view .LVU7
  62 0000 FEE7     		b	.L4
  63              		.cfi_endproc
  64              	.LFE243:
  66              		.section	.text.MemManage_Handler,"ax",%progbits
  67              		.align	1
  68              		.global	MemManage_Handler
  69              		.syntax unified
  70              		.thumb
  71              		.thumb_func
  73              	MemManage_Handler:
ARM GAS  C:\Users\valer\AppData\Local\Temp\ccJKkpr7.s 			page 4


  74              	.LFB244:
 102:Core/Src/stm32f4xx_it.c **** }
 103:Core/Src/stm32f4xx_it.c **** 
 104:Core/Src/stm32f4xx_it.c **** /**
 105:Core/Src/stm32f4xx_it.c ****   * @brief This function handles Memory management fault.
 106:Core/Src/stm32f4xx_it.c ****   */
 107:Core/Src/stm32f4xx_it.c **** void MemManage_Handler(void)
 108:Core/Src/stm32f4xx_it.c **** {
  75              		.loc 1 108 1 view -0
  76              		.cfi_startproc
  77              		@ Volatile: function does not return.
  78              		@ args = 0, pretend = 0, frame = 0
  79              		@ frame_needed = 0, uses_anonymous_args = 0
  80              		@ link register save eliminated.
  81              	.L6:
 109:Core/Src/stm32f4xx_it.c ****   /* USER CODE BEGIN MemoryManagement_IRQn 0 */
 110:Core/Src/stm32f4xx_it.c **** 
 111:Core/Src/stm32f4xx_it.c ****   /* USER CODE END MemoryManagement_IRQn 0 */
 112:Core/Src/stm32f4xx_it.c ****   while (1)
  82              		.loc 1 112 3 view .LVU9
 113:Core/Src/stm32f4xx_it.c ****   {
 114:Core/Src/stm32f4xx_it.c ****     /* USER CODE BEGIN W1_MemoryManagement_IRQn 0 */
 115:Core/Src/stm32f4xx_it.c ****     /* USER CODE END W1_MemoryManagement_IRQn 0 */
 116:Core/Src/stm32f4xx_it.c ****   }
  83              		.loc 1 116 3 view .LVU10
 112:Core/Src/stm32f4xx_it.c ****   {
  84              		.loc 1 112 9 view .LVU11
  85 0000 FEE7     		b	.L6
  86              		.cfi_endproc
  87              	.LFE244:
  89              		.section	.text.BusFault_Handler,"ax",%progbits
  90              		.align	1
  91              		.global	BusFault_Handler
  92              		.syntax unified
  93              		.thumb
  94              		.thumb_func
  96              	BusFault_Handler:
  97              	.LFB245:
 117:Core/Src/stm32f4xx_it.c **** }
 118:Core/Src/stm32f4xx_it.c **** 
 119:Core/Src/stm32f4xx_it.c **** /**
 120:Core/Src/stm32f4xx_it.c ****   * @brief This function handles Pre-fetch fault, memory access fault.
 121:Core/Src/stm32f4xx_it.c ****   */
 122:Core/Src/stm32f4xx_it.c **** void BusFault_Handler(void)
 123:Core/Src/stm32f4xx_it.c **** {
  98              		.loc 1 123 1 view -0
  99              		.cfi_startproc
 100              		@ Volatile: function does not return.
 101              		@ args = 0, pretend = 0, frame = 0
 102              		@ frame_needed = 0, uses_anonymous_args = 0
 103              		@ link register save eliminated.
 104              	.L8:
 124:Core/Src/stm32f4xx_it.c ****   /* USER CODE BEGIN BusFault_IRQn 0 */
 125:Core/Src/stm32f4xx_it.c **** 
 126:Core/Src/stm32f4xx_it.c ****   /* USER CODE END BusFault_IRQn 0 */
 127:Core/Src/stm32f4xx_it.c ****   while (1)
 105              		.loc 1 127 3 view .LVU13
ARM GAS  C:\Users\valer\AppData\Local\Temp\ccJKkpr7.s 			page 5


 128:Core/Src/stm32f4xx_it.c ****   {
 129:Core/Src/stm32f4xx_it.c ****     /* USER CODE BEGIN W1_BusFault_IRQn 0 */
 130:Core/Src/stm32f4xx_it.c ****     /* USER CODE END W1_BusFault_IRQn 0 */
 131:Core/Src/stm32f4xx_it.c ****   }
 106              		.loc 1 131 3 view .LVU14
 127:Core/Src/stm32f4xx_it.c ****   {
 107              		.loc 1 127 9 view .LVU15
 108 0000 FEE7     		b	.L8
 109              		.cfi_endproc
 110              	.LFE245:
 112              		.section	.text.UsageFault_Handler,"ax",%progbits
 113              		.align	1
 114              		.global	UsageFault_Handler
 115              		.syntax unified
 116              		.thumb
 117              		.thumb_func
 119              	UsageFault_Handler:
 120              	.LFB246:
 132:Core/Src/stm32f4xx_it.c **** }
 133:Core/Src/stm32f4xx_it.c **** 
 134:Core/Src/stm32f4xx_it.c **** /**
 135:Core/Src/stm32f4xx_it.c ****   * @brief This function handles Undefined instruction or illegal state.
 136:Core/Src/stm32f4xx_it.c ****   */
 137:Core/Src/stm32f4xx_it.c **** void UsageFault_Handler(void)
 138:Core/Src/stm32f4xx_it.c **** {
 121              		.loc 1 138 1 view -0
 122              		.cfi_startproc
 123              		@ Volatile: function does not return.
 124              		@ args = 0, pretend = 0, frame = 0
 125              		@ frame_needed = 0, uses_anonymous_args = 0
 126              		@ link register save eliminated.
 127              	.L10:
 139:Core/Src/stm32f4xx_it.c ****   /* USER CODE BEGIN UsageFault_IRQn 0 */
 140:Core/Src/stm32f4xx_it.c **** 
 141:Core/Src/stm32f4xx_it.c ****   /* USER CODE END UsageFault_IRQn 0 */
 142:Core/Src/stm32f4xx_it.c ****   while (1)
 128              		.loc 1 142 3 view .LVU17
 143:Core/Src/stm32f4xx_it.c ****   {
 144:Core/Src/stm32f4xx_it.c ****     /* USER CODE BEGIN W1_UsageFault_IRQn 0 */
 145:Core/Src/stm32f4xx_it.c ****     /* USER CODE END W1_UsageFault_IRQn 0 */
 146:Core/Src/stm32f4xx_it.c ****   }
 129              		.loc 1 146 3 view .LVU18
 142:Core/Src/stm32f4xx_it.c ****   {
 130              		.loc 1 142 9 view .LVU19
 131 0000 FEE7     		b	.L10
 132              		.cfi_endproc
 133              	.LFE246:
 135              		.section	.text.SVC_Handler,"ax",%progbits
 136              		.align	1
 137              		.global	SVC_Handler
 138              		.syntax unified
 139              		.thumb
 140              		.thumb_func
 142              	SVC_Handler:
 143              	.LFB247:
 147:Core/Src/stm32f4xx_it.c **** }
 148:Core/Src/stm32f4xx_it.c **** 
ARM GAS  C:\Users\valer\AppData\Local\Temp\ccJKkpr7.s 			page 6


 149:Core/Src/stm32f4xx_it.c **** /**
 150:Core/Src/stm32f4xx_it.c ****   * @brief This function handles System service call via SWI instruction.
 151:Core/Src/stm32f4xx_it.c ****   */
 152:Core/Src/stm32f4xx_it.c **** void SVC_Handler(void)
 153:Core/Src/stm32f4xx_it.c **** {
 144              		.loc 1 153 1 view -0
 145              		.cfi_startproc
 146              		@ args = 0, pretend = 0, frame = 0
 147              		@ frame_needed = 0, uses_anonymous_args = 0
 148              		@ link register save eliminated.
 154:Core/Src/stm32f4xx_it.c ****   /* USER CODE BEGIN SVCall_IRQn 0 */
 155:Core/Src/stm32f4xx_it.c **** 
 156:Core/Src/stm32f4xx_it.c ****   /* USER CODE END SVCall_IRQn 0 */
 157:Core/Src/stm32f4xx_it.c ****   /* USER CODE BEGIN SVCall_IRQn 1 */
 158:Core/Src/stm32f4xx_it.c **** 
 159:Core/Src/stm32f4xx_it.c ****   /* USER CODE END SVCall_IRQn 1 */
 160:Core/Src/stm32f4xx_it.c **** }
 149              		.loc 1 160 1 view .LVU21
 150 0000 7047     		bx	lr
 151              		.cfi_endproc
 152              	.LFE247:
 154              		.section	.text.DebugMon_Handler,"ax",%progbits
 155              		.align	1
 156              		.global	DebugMon_Handler
 157              		.syntax unified
 158              		.thumb
 159              		.thumb_func
 161              	DebugMon_Handler:
 162              	.LFB248:
 161:Core/Src/stm32f4xx_it.c **** 
 162:Core/Src/stm32f4xx_it.c **** /**
 163:Core/Src/stm32f4xx_it.c ****   * @brief This function handles Debug monitor.
 164:Core/Src/stm32f4xx_it.c ****   */
 165:Core/Src/stm32f4xx_it.c **** void DebugMon_Handler(void)
 166:Core/Src/stm32f4xx_it.c **** {
 163              		.loc 1 166 1 view -0
 164              		.cfi_startproc
 165              		@ args = 0, pretend = 0, frame = 0
 166              		@ frame_needed = 0, uses_anonymous_args = 0
 167              		@ link register save eliminated.
 167:Core/Src/stm32f4xx_it.c ****   /* USER CODE BEGIN DebugMonitor_IRQn 0 */
 168:Core/Src/stm32f4xx_it.c **** 
 169:Core/Src/stm32f4xx_it.c ****   /* USER CODE END DebugMonitor_IRQn 0 */
 170:Core/Src/stm32f4xx_it.c ****   /* USER CODE BEGIN DebugMonitor_IRQn 1 */
 171:Core/Src/stm32f4xx_it.c **** 
 172:Core/Src/stm32f4xx_it.c ****   /* USER CODE END DebugMonitor_IRQn 1 */
 173:Core/Src/stm32f4xx_it.c **** }
 168              		.loc 1 173 1 view .LVU23
 169 0000 7047     		bx	lr
 170              		.cfi_endproc
 171              	.LFE248:
 173              		.section	.text.PendSV_Handler,"ax",%progbits
 174              		.align	1
 175              		.global	PendSV_Handler
 176              		.syntax unified
 177              		.thumb
 178              		.thumb_func
ARM GAS  C:\Users\valer\AppData\Local\Temp\ccJKkpr7.s 			page 7


 180              	PendSV_Handler:
 181              	.LFB249:
 174:Core/Src/stm32f4xx_it.c **** 
 175:Core/Src/stm32f4xx_it.c **** /**
 176:Core/Src/stm32f4xx_it.c ****   * @brief This function handles Pendable request for system service.
 177:Core/Src/stm32f4xx_it.c ****   */
 178:Core/Src/stm32f4xx_it.c **** void PendSV_Handler(void)
 179:Core/Src/stm32f4xx_it.c **** {
 182              		.loc 1 179 1 view -0
 183              		.cfi_startproc
 184              		@ args = 0, pretend = 0, frame = 0
 185              		@ frame_needed = 0, uses_anonymous_args = 0
 186              		@ link register save eliminated.
 180:Core/Src/stm32f4xx_it.c ****   /* USER CODE BEGIN PendSV_IRQn 0 */
 181:Core/Src/stm32f4xx_it.c **** 
 182:Core/Src/stm32f4xx_it.c ****   /* USER CODE END PendSV_IRQn 0 */
 183:Core/Src/stm32f4xx_it.c ****   /* USER CODE BEGIN PendSV_IRQn 1 */
 184:Core/Src/stm32f4xx_it.c **** 
 185:Core/Src/stm32f4xx_it.c ****   /* USER CODE END PendSV_IRQn 1 */
 186:Core/Src/stm32f4xx_it.c **** }
 187              		.loc 1 186 1 view .LVU25
 188 0000 7047     		bx	lr
 189              		.cfi_endproc
 190              	.LFE249:
 192              		.section	.text.SysTick_Handler,"ax",%progbits
 193              		.align	1
 194              		.global	SysTick_Handler
 195              		.syntax unified
 196              		.thumb
 197              		.thumb_func
 199              	SysTick_Handler:
 200              	.LFB250:
 187:Core/Src/stm32f4xx_it.c **** 
 188:Core/Src/stm32f4xx_it.c **** /**
 189:Core/Src/stm32f4xx_it.c ****   * @brief This function handles System tick timer.
 190:Core/Src/stm32f4xx_it.c ****   */
 191:Core/Src/stm32f4xx_it.c **** void SysTick_Handler(void)
 192:Core/Src/stm32f4xx_it.c **** {
 201              		.loc 1 192 1 view -0
 202              		.cfi_startproc
 203              		@ args = 0, pretend = 0, frame = 0
 204              		@ frame_needed = 0, uses_anonymous_args = 0
 205 0000 08B5     		push	{r3, lr}
 206              		.cfi_def_cfa_offset 8
 207              		.cfi_offset 3, -8
 208              		.cfi_offset 14, -4
 193:Core/Src/stm32f4xx_it.c ****   /* USER CODE BEGIN SysTick_IRQn 0 */
 194:Core/Src/stm32f4xx_it.c **** 
 195:Core/Src/stm32f4xx_it.c ****   /* USER CODE END SysTick_IRQn 0 */
 196:Core/Src/stm32f4xx_it.c ****   HAL_IncTick();
 209              		.loc 1 196 3 view .LVU27
 210 0002 FFF7FEFF 		bl	HAL_IncTick
 211              	.LVL0:
 197:Core/Src/stm32f4xx_it.c ****   /* USER CODE BEGIN SysTick_IRQn 1 */
 198:Core/Src/stm32f4xx_it.c **** 
 199:Core/Src/stm32f4xx_it.c ****   /* USER CODE END SysTick_IRQn 1 */
 200:Core/Src/stm32f4xx_it.c **** }
ARM GAS  C:\Users\valer\AppData\Local\Temp\ccJKkpr7.s 			page 8


 212              		.loc 1 200 1 is_stmt 0 view .LVU28
 213 0006 08BD     		pop	{r3, pc}
 214              		.cfi_endproc
 215              	.LFE250:
 217              		.section	.rodata.EXTI0_IRQHandler.str1.4,"aMS",%progbits,1
 218              		.align	2
 219              	.LC0:
 220 0000 44696769 		.ascii	"Digital: %d\015\012\000"
 220      74616C3A 
 220      2025640D 
 220      0A00
 221              		.section	.text.EXTI0_IRQHandler,"ax",%progbits
 222              		.align	1
 223              		.global	EXTI0_IRQHandler
 224              		.syntax unified
 225              		.thumb
 226              		.thumb_func
 228              	EXTI0_IRQHandler:
 229              	.LFB251:
 201:Core/Src/stm32f4xx_it.c **** 
 202:Core/Src/stm32f4xx_it.c **** /******************************************************************************/
 203:Core/Src/stm32f4xx_it.c **** /* STM32F4xx Peripheral Interrupt Handlers                                    */
 204:Core/Src/stm32f4xx_it.c **** /* Add here the Interrupt Handlers for the used peripherals.                  */
 205:Core/Src/stm32f4xx_it.c **** /* For the available peripheral interrupt handler names,                      */
 206:Core/Src/stm32f4xx_it.c **** /* please refer to the startup file (startup_stm32f4xx.s).                    */
 207:Core/Src/stm32f4xx_it.c **** /******************************************************************************/
 208:Core/Src/stm32f4xx_it.c **** 
 209:Core/Src/stm32f4xx_it.c **** /**
 210:Core/Src/stm32f4xx_it.c ****   * @brief This function handles EXTI line 0 interrupt.
 211:Core/Src/stm32f4xx_it.c ****   */
 212:Core/Src/stm32f4xx_it.c **** void EXTI0_IRQHandler(void)
 213:Core/Src/stm32f4xx_it.c **** {
 230              		.loc 1 213 1 is_stmt 1 view -0
 231              		.cfi_startproc
 232              		@ args = 0, pretend = 0, frame = 56
 233              		@ frame_needed = 0, uses_anonymous_args = 0
 234 0000 00B5     		push	{lr}
 235              		.cfi_def_cfa_offset 4
 236              		.cfi_offset 14, -4
 237 0002 8FB0     		sub	sp, sp, #60
 238              		.cfi_def_cfa_offset 64
 214:Core/Src/stm32f4xx_it.c ****   /* USER CODE BEGIN EXTI0_IRQn 0 */
 215:Core/Src/stm32f4xx_it.c **** 
 216:Core/Src/stm32f4xx_it.c ****   // Vedi code begin 0 e 1 per gestire rising falling
 217:Core/Src/stm32f4xx_it.c **** 
 218:Core/Src/stm32f4xx_it.c ****   // Leggi lo stato del sensore digitale
 219:Core/Src/stm32f4xx_it.c ****   is_magnet_detected = HAL_GPIO_ReadPin(GPIOA, GPIO_PIN_0); 
 239              		.loc 1 219 3 view .LVU30
 240              		.loc 1 219 24 is_stmt 0 view .LVU31
 241 0004 0121     		movs	r1, #1
 242 0006 0D48     		ldr	r0, .L18
 243 0008 FFF7FEFF 		bl	HAL_GPIO_ReadPin
 244              	.LVL1:
 245 000c 0246     		mov	r2, r0
 246              		.loc 1 219 22 discriminator 1 view .LVU32
 247 000e 0C4B     		ldr	r3, .L18+4
 248 0010 1860     		str	r0, [r3]
ARM GAS  C:\Users\valer\AppData\Local\Temp\ccJKkpr7.s 			page 9


 220:Core/Src/stm32f4xx_it.c **** 
 221:Core/Src/stm32f4xx_it.c ****   char msg[50];  // Buffer per inviare messaggi via UART
 249              		.loc 1 221 3 is_stmt 1 view .LVU33
 222:Core/Src/stm32f4xx_it.c ****   
 223:Core/Src/stm32f4xx_it.c ****   // Invia il valore digitale via UART
 224:Core/Src/stm32f4xx_it.c ****   sprintf(msg, "Digital: %d\r\n", is_magnet_detected);
 250              		.loc 1 224 3 view .LVU34
 251 0012 0C49     		ldr	r1, .L18+8
 252 0014 01A8     		add	r0, sp, #4
 253 0016 FFF7FEFF 		bl	sprintf
 254              	.LVL2:
 225:Core/Src/stm32f4xx_it.c ****   HAL_UART_Transmit(&huart2, (uint8_t*)msg, strlen(msg), HAL_MAX_DELAY);
 255              		.loc 1 225 3 view .LVU35
 256              		.loc 1 225 45 is_stmt 0 view .LVU36
 257 001a 01A8     		add	r0, sp, #4
 258 001c FFF7FEFF 		bl	strlen
 259              	.LVL3:
 260              		.loc 1 225 3 discriminator 1 view .LVU37
 261 0020 4FF0FF33 		mov	r3, #-1
 262 0024 82B2     		uxth	r2, r0
 263 0026 01A9     		add	r1, sp, #4
 264 0028 0748     		ldr	r0, .L18+12
 265 002a FFF7FEFF 		bl	HAL_UART_Transmit
 266              	.LVL4:
 226:Core/Src/stm32f4xx_it.c ****     
 227:Core/Src/stm32f4xx_it.c ****   /* USER CODE END EXTI0_IRQn 0 */
 228:Core/Src/stm32f4xx_it.c ****   HAL_GPIO_EXTI_IRQHandler(GPIO_PIN_0);
 267              		.loc 1 228 3 is_stmt 1 view .LVU38
 268 002e 0120     		movs	r0, #1
 269 0030 FFF7FEFF 		bl	HAL_GPIO_EXTI_IRQHandler
 270              	.LVL5:
 229:Core/Src/stm32f4xx_it.c ****   /* USER CODE BEGIN EXTI0_IRQn 1 */
 230:Core/Src/stm32f4xx_it.c **** 
 231:Core/Src/stm32f4xx_it.c ****   /* USER CODE END EXTI0_IRQn 1 */
 232:Core/Src/stm32f4xx_it.c **** }
 271              		.loc 1 232 1 is_stmt 0 view .LVU39
 272 0034 0FB0     		add	sp, sp, #60
 273              		.cfi_def_cfa_offset 4
 274              		@ sp needed
 275 0036 5DF804FB 		ldr	pc, [sp], #4
 276              	.L19:
 277 003a 00BF     		.align	2
 278              	.L18:
 279 003c 00000240 		.word	1073872896
 280 0040 00000000 		.word	is_magnet_detected
 281 0044 00000000 		.word	.LC0
 282 0048 00000000 		.word	huart2
 283              		.cfi_endproc
 284              	.LFE251:
 286              		.section	.text.TIM2_IRQHandler,"ax",%progbits
 287              		.align	1
 288              		.global	TIM2_IRQHandler
 289              		.syntax unified
 290              		.thumb
 291              		.thumb_func
 293              	TIM2_IRQHandler:
 294              	.LFB252:
ARM GAS  C:\Users\valer\AppData\Local\Temp\ccJKkpr7.s 			page 10


 233:Core/Src/stm32f4xx_it.c **** 
 234:Core/Src/stm32f4xx_it.c **** /**
 235:Core/Src/stm32f4xx_it.c ****   * @brief This function handles TIM2 global interrupt.
 236:Core/Src/stm32f4xx_it.c ****   */
 237:Core/Src/stm32f4xx_it.c **** void TIM2_IRQHandler(void)
 238:Core/Src/stm32f4xx_it.c **** {
 295              		.loc 1 238 1 is_stmt 1 view -0
 296              		.cfi_startproc
 297              		@ args = 0, pretend = 0, frame = 0
 298              		@ frame_needed = 0, uses_anonymous_args = 0
 299 0000 08B5     		push	{r3, lr}
 300              		.cfi_def_cfa_offset 8
 301              		.cfi_offset 3, -8
 302              		.cfi_offset 14, -4
 239:Core/Src/stm32f4xx_it.c ****   /* USER CODE BEGIN TIM2_IRQn 0 */
 240:Core/Src/stm32f4xx_it.c ****   //timer 1000ms
 241:Core/Src/stm32f4xx_it.c **** 
 242:Core/Src/stm32f4xx_it.c ****   /* USER CODE END TIM2_IRQn 0 */
 243:Core/Src/stm32f4xx_it.c ****   HAL_TIM_IRQHandler(&htim2);
 303              		.loc 1 243 3 view .LVU41
 304 0002 0748     		ldr	r0, .L22
 305 0004 FFF7FEFF 		bl	HAL_TIM_IRQHandler
 306              	.LVL6:
 244:Core/Src/stm32f4xx_it.c ****   /* USER CODE BEGIN TIM2_IRQn 1 */
 245:Core/Src/stm32f4xx_it.c ****   led_state = !led_state;
 307              		.loc 1 245 3 view .LVU42
 308              		.loc 1 245 15 is_stmt 0 view .LVU43
 309 0008 064B     		ldr	r3, .L22+4
 310 000a 1A68     		ldr	r2, [r3]
 311 000c B2FA82F2 		clz	r2, r2
 312 0010 5209     		lsrs	r2, r2, #5
 313              		.loc 1 245 13 view .LVU44
 314 0012 1A60     		str	r2, [r3]
 246:Core/Src/stm32f4xx_it.c ****   HAL_GPIO_WritePin(LD2_GPIO_Port, LD2_Pin, led_state);
 315              		.loc 1 246 3 is_stmt 1 view .LVU45
 316 0014 2021     		movs	r1, #32
 317 0016 0448     		ldr	r0, .L22+8
 318 0018 FFF7FEFF 		bl	HAL_GPIO_WritePin
 319              	.LVL7:
 247:Core/Src/stm32f4xx_it.c ****   /* USER CODE END TIM2_IRQn 1 */
 248:Core/Src/stm32f4xx_it.c **** }
 320              		.loc 1 248 1 is_stmt 0 view .LVU46
 321 001c 08BD     		pop	{r3, pc}
 322              	.L23:
 323 001e 00BF     		.align	2
 324              	.L22:
 325 0020 00000000 		.word	htim2
 326 0024 00000000 		.word	led_state
 327 0028 00000240 		.word	1073872896
 328              		.cfi_endproc
 329              	.LFE252:
 331              		.section	.text.TIM3_IRQHandler,"ax",%progbits
 332              		.align	1
 333              		.global	TIM3_IRQHandler
 334              		.syntax unified
 335              		.thumb
 336              		.thumb_func
ARM GAS  C:\Users\valer\AppData\Local\Temp\ccJKkpr7.s 			page 11


 338              	TIM3_IRQHandler:
 339              	.LFB253:
 249:Core/Src/stm32f4xx_it.c **** 
 250:Core/Src/stm32f4xx_it.c **** /**
 251:Core/Src/stm32f4xx_it.c ****   * @brief This function handles TIM3 global interrupt.
 252:Core/Src/stm32f4xx_it.c ****   */
 253:Core/Src/stm32f4xx_it.c **** void TIM3_IRQHandler(void)
 254:Core/Src/stm32f4xx_it.c **** {
 340              		.loc 1 254 1 is_stmt 1 view -0
 341              		.cfi_startproc
 342              		@ args = 0, pretend = 0, frame = 0
 343              		@ frame_needed = 0, uses_anonymous_args = 0
 344 0000 08B5     		push	{r3, lr}
 345              		.cfi_def_cfa_offset 8
 346              		.cfi_offset 3, -8
 347              		.cfi_offset 14, -4
 255:Core/Src/stm32f4xx_it.c ****   /* USER CODE BEGIN TIM3_IRQn 0 */
 256:Core/Src/stm32f4xx_it.c ****   //timer 50ms
 257:Core/Src/stm32f4xx_it.c **** 
 258:Core/Src/stm32f4xx_it.c ****   /* USER CODE END TIM3_IRQn 0 */
 259:Core/Src/stm32f4xx_it.c ****   HAL_TIM_IRQHandler(&htim3);
 348              		.loc 1 259 3 view .LVU48
 349 0002 0748     		ldr	r0, .L26
 350 0004 FFF7FEFF 		bl	HAL_TIM_IRQHandler
 351              	.LVL8:
 260:Core/Src/stm32f4xx_it.c ****   /* USER CODE BEGIN TIM3_IRQn 1 */
 261:Core/Src/stm32f4xx_it.c ****   led_state = !led_state;
 352              		.loc 1 261 3 view .LVU49
 353              		.loc 1 261 15 is_stmt 0 view .LVU50
 354 0008 064B     		ldr	r3, .L26+4
 355 000a 1A68     		ldr	r2, [r3]
 356 000c B2FA82F2 		clz	r2, r2
 357 0010 5209     		lsrs	r2, r2, #5
 358              		.loc 1 261 13 view .LVU51
 359 0012 1A60     		str	r2, [r3]
 262:Core/Src/stm32f4xx_it.c ****   HAL_GPIO_WritePin(LD2_GPIO_Port, LD2_Pin, led_state);
 360              		.loc 1 262 3 is_stmt 1 view .LVU52
 361 0014 2021     		movs	r1, #32
 362 0016 0448     		ldr	r0, .L26+8
 363 0018 FFF7FEFF 		bl	HAL_GPIO_WritePin
 364              	.LVL9:
 263:Core/Src/stm32f4xx_it.c ****   /* USER CODE END TIM3_IRQn 1 */
 264:Core/Src/stm32f4xx_it.c **** }
 365              		.loc 1 264 1 is_stmt 0 view .LVU53
 366 001c 08BD     		pop	{r3, pc}
 367              	.L27:
 368 001e 00BF     		.align	2
 369              	.L26:
 370 0020 00000000 		.word	htim3
 371 0024 00000000 		.word	led_state
 372 0028 00000240 		.word	1073872896
 373              		.cfi_endproc
 374              	.LFE253:
 376              		.section	.text.EXTI15_10_IRQHandler,"ax",%progbits
 377              		.align	1
 378              		.global	EXTI15_10_IRQHandler
 379              		.syntax unified
ARM GAS  C:\Users\valer\AppData\Local\Temp\ccJKkpr7.s 			page 12


 380              		.thumb
 381              		.thumb_func
 383              	EXTI15_10_IRQHandler:
 384              	.LFB254:
 265:Core/Src/stm32f4xx_it.c **** 
 266:Core/Src/stm32f4xx_it.c **** /**
 267:Core/Src/stm32f4xx_it.c ****   * @brief This function handles EXTI line[15:10] interrupts.
 268:Core/Src/stm32f4xx_it.c ****   */
 269:Core/Src/stm32f4xx_it.c **** void EXTI15_10_IRQHandler(void)
 270:Core/Src/stm32f4xx_it.c **** {
 385              		.loc 1 270 1 is_stmt 1 view -0
 386              		.cfi_startproc
 387              		@ args = 0, pretend = 0, frame = 0
 388              		@ frame_needed = 0, uses_anonymous_args = 0
 389 0000 08B5     		push	{r3, lr}
 390              		.cfi_def_cfa_offset 8
 391              		.cfi_offset 3, -8
 392              		.cfi_offset 14, -4
 271:Core/Src/stm32f4xx_it.c ****   /* USER CODE BEGIN EXTI15_10_IRQn 0 */
 272:Core/Src/stm32f4xx_it.c **** 
 273:Core/Src/stm32f4xx_it.c ****   /* USER CODE END EXTI15_10_IRQn 0 */
 274:Core/Src/stm32f4xx_it.c ****   HAL_GPIO_EXTI_IRQHandler(B1_Pin);
 393              		.loc 1 274 3 view .LVU55
 394 0002 4FF40050 		mov	r0, #8192
 395 0006 FFF7FEFF 		bl	HAL_GPIO_EXTI_IRQHandler
 396              	.LVL10:
 275:Core/Src/stm32f4xx_it.c ****   /* USER CODE BEGIN EXTI15_10_IRQn 1 */
 276:Core/Src/stm32f4xx_it.c ****   if(HAL_GPIO_ReadPin(GPIOB, GPIO_PIN_13)){
 397              		.loc 1 276 3 view .LVU56
 398              		.loc 1 276 6 is_stmt 0 view .LVU57
 399 000a 4FF40051 		mov	r1, #8192
 400 000e 0448     		ldr	r0, .L32
 401 0010 FFF7FEFF 		bl	HAL_GPIO_ReadPin
 402              	.LVL11:
 403              		.loc 1 276 5 discriminator 1 view .LVU58
 404 0014 00B9     		cbnz	r0, .L31
 405              	.L28:
 277:Core/Src/stm32f4xx_it.c ****     button_pressed(&fsm);
 278:Core/Src/stm32f4xx_it.c ****   }
 279:Core/Src/stm32f4xx_it.c ****   /* USER CODE END EXTI15_10_IRQn 1 */
 280:Core/Src/stm32f4xx_it.c **** }
 406              		.loc 1 280 1 view .LVU59
 407 0016 08BD     		pop	{r3, pc}
 408              	.L31:
 277:Core/Src/stm32f4xx_it.c ****     button_pressed(&fsm);
 409              		.loc 1 277 5 is_stmt 1 view .LVU60
 410 0018 0248     		ldr	r0, .L32+4
 411 001a FFF7FEFF 		bl	button_pressed
 412              	.LVL12:
 413              		.loc 1 280 1 is_stmt 0 view .LVU61
 414 001e FAE7     		b	.L28
 415              	.L33:
 416              		.align	2
 417              	.L32:
 418 0020 00040240 		.word	1073873920
 419 0024 00000000 		.word	fsm
 420              		.cfi_endproc
ARM GAS  C:\Users\valer\AppData\Local\Temp\ccJKkpr7.s 			page 13


 421              	.LFE254:
 423              		.section	.text.DMA2_Stream0_IRQHandler,"ax",%progbits
 424              		.align	1
 425              		.global	DMA2_Stream0_IRQHandler
 426              		.syntax unified
 427              		.thumb
 428              		.thumb_func
 430              	DMA2_Stream0_IRQHandler:
 431              	.LFB255:
 281:Core/Src/stm32f4xx_it.c **** 
 282:Core/Src/stm32f4xx_it.c **** /**
 283:Core/Src/stm32f4xx_it.c ****   * @brief This function handles DMA2 stream0 global interrupt.
 284:Core/Src/stm32f4xx_it.c ****   */
 285:Core/Src/stm32f4xx_it.c **** void DMA2_Stream0_IRQHandler(void)
 286:Core/Src/stm32f4xx_it.c **** {
 432              		.loc 1 286 1 is_stmt 1 view -0
 433              		.cfi_startproc
 434              		@ args = 0, pretend = 0, frame = 0
 435              		@ frame_needed = 0, uses_anonymous_args = 0
 436 0000 08B5     		push	{r3, lr}
 437              		.cfi_def_cfa_offset 8
 438              		.cfi_offset 3, -8
 439              		.cfi_offset 14, -4
 287:Core/Src/stm32f4xx_it.c ****   /* USER CODE BEGIN DMA2_Stream0_IRQn 0 */
 288:Core/Src/stm32f4xx_it.c **** 
 289:Core/Src/stm32f4xx_it.c ****   /* USER CODE END DMA2_Stream0_IRQn 0 */
 290:Core/Src/stm32f4xx_it.c ****   HAL_DMA_IRQHandler(&hdma_adc1);
 440              		.loc 1 290 3 view .LVU63
 441 0002 0748     		ldr	r0, .L38
 442 0004 FFF7FEFF 		bl	HAL_DMA_IRQHandler
 443              	.LVL13:
 291:Core/Src/stm32f4xx_it.c ****   /* USER CODE BEGIN DMA2_Stream0_IRQn 1 */
 292:Core/Src/stm32f4xx_it.c ****   if(HAL_GPIO_ReadPin(GPIOB, GPIO_PIN_13)){
 444              		.loc 1 292 3 view .LVU64
 445              		.loc 1 292 6 is_stmt 0 view .LVU65
 446 0008 4FF40051 		mov	r1, #8192
 447 000c 0548     		ldr	r0, .L38+4
 448 000e FFF7FEFF 		bl	HAL_GPIO_ReadPin
 449              	.LVL14:
 450              		.loc 1 292 5 discriminator 1 view .LVU66
 451 0012 00B9     		cbnz	r0, .L37
 452              	.L34:
 293:Core/Src/stm32f4xx_it.c ****     button_pressed(&fsm);
 294:Core/Src/stm32f4xx_it.c ****   }
 295:Core/Src/stm32f4xx_it.c ****   /* USER CODE END DMA2_Stream0_IRQn 1 */
 296:Core/Src/stm32f4xx_it.c **** }
 453              		.loc 1 296 1 view .LVU67
 454 0014 08BD     		pop	{r3, pc}
 455              	.L37:
 293:Core/Src/stm32f4xx_it.c ****     button_pressed(&fsm);
 456              		.loc 1 293 5 is_stmt 1 view .LVU68
 457 0016 0448     		ldr	r0, .L38+8
 458 0018 FFF7FEFF 		bl	button_pressed
 459              	.LVL15:
 460              		.loc 1 296 1 is_stmt 0 view .LVU69
 461 001c FAE7     		b	.L34
 462              	.L39:
ARM GAS  C:\Users\valer\AppData\Local\Temp\ccJKkpr7.s 			page 14


 463 001e 00BF     		.align	2
 464              	.L38:
 465 0020 00000000 		.word	hdma_adc1
 466 0024 00040240 		.word	1073873920
 467 0028 00000000 		.word	fsm
 468              		.cfi_endproc
 469              	.LFE255:
 471              		.global	is_magnet_detected
 472              		.section	.bss.is_magnet_detected,"aw",%nobits
 473              		.align	2
 476              	is_magnet_detected:
 477 0000 00000000 		.space	4
 478              		.global	led_state
 479              		.section	.bss.led_state,"aw",%nobits
 480              		.align	2
 483              	led_state:
 484 0000 00000000 		.space	4
 485              		.text
 486              	.Letext0:
 487              		.file 2 "C:/Users/valer/AppData/Roaming/Code/User/globalStorage/bmd.stm32-for-vscode/@xpack-dev-to
 488              		.file 3 "C:/Users/valer/AppData/Roaming/Code/User/globalStorage/bmd.stm32-for-vscode/@xpack-dev-to
 489              		.file 4 "Drivers/CMSIS/Device/ST/STM32F4xx/Include/stm32f446xx.h"
 490              		.file 5 "C:/Users/valer/AppData/Roaming/Code/User/globalStorage/bmd.stm32-for-vscode/@xpack-dev-to
 491              		.file 6 "Drivers/STM32F4xx_HAL_Driver/Inc/stm32f4xx_hal_def.h"
 492              		.file 7 "Drivers/STM32F4xx_HAL_Driver/Inc/stm32f4xx_hal_gpio.h"
 493              		.file 8 "Drivers/STM32F4xx_HAL_Driver/Inc/stm32f4xx_hal_dma.h"
 494              		.file 9 "Drivers/STM32F4xx_HAL_Driver/Inc/stm32f4xx_hal_tim.h"
 495              		.file 10 "Drivers/STM32F4xx_HAL_Driver/Inc/stm32f4xx_hal_uart.h"
 496              		.file 11 "Core/Inc/fsm_controller.h"
 497              		.file 12 "C:/Users/valer/AppData/Roaming/Code/User/globalStorage/bmd.stm32-for-vscode/@xpack-dev-t
 498              		.file 13 "C:/Users/valer/AppData/Roaming/Code/User/globalStorage/bmd.stm32-for-vscode/@xpack-dev-t
 499              		.file 14 "Drivers/STM32F4xx_HAL_Driver/Inc/stm32f4xx_hal.h"
ARM GAS  C:\Users\valer\AppData\Local\Temp\ccJKkpr7.s 			page 15

