ARM GAS  C:\Users\valer\AppData\Local\Temp\ccfAub7k.s 			page 1


   1              		.cpu cortex-m4
   2              		.arch armv7e-m
   3              		.fpu fpv4-sp-d16
   4              		.eabi_attribute 27, 1
   5              		.eabi_attribute 28, 1
   6              		.eabi_attribute 20, 1
   7              		.eabi_attribute 21, 1
   8              		.eabi_attribute 23, 3
   9              		.eabi_attribute 24, 1
  10              		.eabi_attribute 25, 1
  11              		.eabi_attribute 26, 1
  12              		.eabi_attribute 30, 1
  13              		.eabi_attribute 34, 1
  14              		.eabi_attribute 18, 4
  15              		.file	"stm32f4xx_it.c"
  16              		.text
  17              	.Ltext0:
  18              		.cfi_sections	.debug_frame
  19              		.file 1 "Core/Src/stm32f4xx_it.c"
  20              		.section	.text.NMI_Handler,"ax",%progbits
  21              		.align	1
  22              		.global	NMI_Handler
  23              		.syntax unified
  24              		.thumb
  25              		.thumb_func
  27              	NMI_Handler:
  28              	.LFB242:
   1:Core/Src/stm32f4xx_it.c **** /* USER CODE BEGIN Header */
   2:Core/Src/stm32f4xx_it.c **** /**
   3:Core/Src/stm32f4xx_it.c ****   ******************************************************************************
   4:Core/Src/stm32f4xx_it.c ****   * @file    stm32f4xx_it.c
   5:Core/Src/stm32f4xx_it.c ****   * @brief   Interrupt Service Routines.
   6:Core/Src/stm32f4xx_it.c ****   ******************************************************************************
   7:Core/Src/stm32f4xx_it.c ****   * @attention
   8:Core/Src/stm32f4xx_it.c ****   *
   9:Core/Src/stm32f4xx_it.c ****   * Copyright (c) 2024 STMicroelectronics.
  10:Core/Src/stm32f4xx_it.c ****   * All rights reserved.
  11:Core/Src/stm32f4xx_it.c ****   *
  12:Core/Src/stm32f4xx_it.c ****   * This software is licensed under terms that can be found in the LICENSE file
  13:Core/Src/stm32f4xx_it.c ****   * in the root directory of this software component.
  14:Core/Src/stm32f4xx_it.c ****   * If no LICENSE file comes with this software, it is provided AS-IS.
  15:Core/Src/stm32f4xx_it.c ****   *
  16:Core/Src/stm32f4xx_it.c ****   ******************************************************************************
  17:Core/Src/stm32f4xx_it.c ****   */
  18:Core/Src/stm32f4xx_it.c **** /* USER CODE END Header */
  19:Core/Src/stm32f4xx_it.c **** 
  20:Core/Src/stm32f4xx_it.c **** /* Includes ------------------------------------------------------------------*/
  21:Core/Src/stm32f4xx_it.c **** #include "main.h"
  22:Core/Src/stm32f4xx_it.c **** #include "stm32f4xx_it.h"
  23:Core/Src/stm32f4xx_it.c **** /* Private includes ----------------------------------------------------------*/
  24:Core/Src/stm32f4xx_it.c **** /* USER CODE BEGIN Includes */
  25:Core/Src/stm32f4xx_it.c **** #include <stdio.h>
  26:Core/Src/stm32f4xx_it.c **** #include <string.h>
  27:Core/Src/stm32f4xx_it.c **** /* USER CODE END Includes */
  28:Core/Src/stm32f4xx_it.c **** 
  29:Core/Src/stm32f4xx_it.c **** /* Private typedef -----------------------------------------------------------*/
  30:Core/Src/stm32f4xx_it.c **** /* USER CODE BEGIN TD */
ARM GAS  C:\Users\valer\AppData\Local\Temp\ccfAub7k.s 			page 2


  31:Core/Src/stm32f4xx_it.c **** 
  32:Core/Src/stm32f4xx_it.c **** /* USER CODE END TD */
  33:Core/Src/stm32f4xx_it.c **** 
  34:Core/Src/stm32f4xx_it.c **** /* Private define ------------------------------------------------------------*/
  35:Core/Src/stm32f4xx_it.c **** /* USER CODE BEGIN PD */
  36:Core/Src/stm32f4xx_it.c **** 
  37:Core/Src/stm32f4xx_it.c **** /* USER CODE END PD */
  38:Core/Src/stm32f4xx_it.c **** 
  39:Core/Src/stm32f4xx_it.c **** /* Private macro -------------------------------------------------------------*/
  40:Core/Src/stm32f4xx_it.c **** /* USER CODE BEGIN PM */
  41:Core/Src/stm32f4xx_it.c **** 
  42:Core/Src/stm32f4xx_it.c **** /* USER CODE END PM */
  43:Core/Src/stm32f4xx_it.c **** 
  44:Core/Src/stm32f4xx_it.c **** /* Private variables ---------------------------------------------------------*/
  45:Core/Src/stm32f4xx_it.c **** /* USER CODE BEGIN PV */
  46:Core/Src/stm32f4xx_it.c **** extern UART_HandleTypeDef huart2;  
  47:Core/Src/stm32f4xx_it.c **** extern ADC_HandleTypeDef hadc1;  
  48:Core/Src/stm32f4xx_it.c **** extern int is_magnet_detected;  
  49:Core/Src/stm32f4xx_it.c **** extern FsmController fsm;
  50:Core/Src/stm32f4xx_it.c **** /* USER CODE END PV */
  51:Core/Src/stm32f4xx_it.c **** 
  52:Core/Src/stm32f4xx_it.c **** /* Private function prototypes -----------------------------------------------*/
  53:Core/Src/stm32f4xx_it.c **** /* USER CODE BEGIN PFP */
  54:Core/Src/stm32f4xx_it.c **** 
  55:Core/Src/stm32f4xx_it.c **** /* USER CODE END PFP */
  56:Core/Src/stm32f4xx_it.c **** 
  57:Core/Src/stm32f4xx_it.c **** /* Private user code ---------------------------------------------------------*/
  58:Core/Src/stm32f4xx_it.c **** /* USER CODE BEGIN 0 */
  59:Core/Src/stm32f4xx_it.c **** 
  60:Core/Src/stm32f4xx_it.c **** /* USER CODE END 0 */
  61:Core/Src/stm32f4xx_it.c **** 
  62:Core/Src/stm32f4xx_it.c **** /* External variables --------------------------------------------------------*/
  63:Core/Src/stm32f4xx_it.c **** extern DMA_HandleTypeDef hdma_adc1;
  64:Core/Src/stm32f4xx_it.c **** extern TIM_HandleTypeDef htim2;
  65:Core/Src/stm32f4xx_it.c **** extern TIM_HandleTypeDef htim3;
  66:Core/Src/stm32f4xx_it.c **** /* USER CODE BEGIN EV */
  67:Core/Src/stm32f4xx_it.c **** 
  68:Core/Src/stm32f4xx_it.c **** /* USER CODE END EV */
  69:Core/Src/stm32f4xx_it.c **** 
  70:Core/Src/stm32f4xx_it.c **** /******************************************************************************/
  71:Core/Src/stm32f4xx_it.c **** /*           Cortex-M4 Processor Interruption and Exception Handlers          */
  72:Core/Src/stm32f4xx_it.c **** /******************************************************************************/
  73:Core/Src/stm32f4xx_it.c **** /**
  74:Core/Src/stm32f4xx_it.c ****   * @brief This function handles Non maskable interrupt.
  75:Core/Src/stm32f4xx_it.c ****   */
  76:Core/Src/stm32f4xx_it.c **** void NMI_Handler(void)
  77:Core/Src/stm32f4xx_it.c **** {
  29              		.loc 1 77 1 view -0
  30              		.cfi_startproc
  31              		@ Volatile: function does not return.
  32              		@ args = 0, pretend = 0, frame = 0
  33              		@ frame_needed = 0, uses_anonymous_args = 0
  34              		@ link register save eliminated.
  35              	.L2:
  78:Core/Src/stm32f4xx_it.c ****   /* USER CODE BEGIN NonMaskableInt_IRQn 0 */
  79:Core/Src/stm32f4xx_it.c **** 
  80:Core/Src/stm32f4xx_it.c ****   /* USER CODE END NonMaskableInt_IRQn 0 */
ARM GAS  C:\Users\valer\AppData\Local\Temp\ccfAub7k.s 			page 3


  81:Core/Src/stm32f4xx_it.c ****   /* USER CODE BEGIN NonMaskableInt_IRQn 1 */
  82:Core/Src/stm32f4xx_it.c ****    while (1)
  36              		.loc 1 82 4 view .LVU1
  83:Core/Src/stm32f4xx_it.c ****   {
  84:Core/Src/stm32f4xx_it.c ****   }
  37              		.loc 1 84 3 view .LVU2
  82:Core/Src/stm32f4xx_it.c ****   {
  38              		.loc 1 82 10 view .LVU3
  39 0000 FEE7     		b	.L2
  40              		.cfi_endproc
  41              	.LFE242:
  43              		.section	.text.HardFault_Handler,"ax",%progbits
  44              		.align	1
  45              		.global	HardFault_Handler
  46              		.syntax unified
  47              		.thumb
  48              		.thumb_func
  50              	HardFault_Handler:
  51              	.LFB243:
  85:Core/Src/stm32f4xx_it.c ****   /* USER CODE END NonMaskableInt_IRQn 1 */
  86:Core/Src/stm32f4xx_it.c **** }
  87:Core/Src/stm32f4xx_it.c **** 
  88:Core/Src/stm32f4xx_it.c **** /**
  89:Core/Src/stm32f4xx_it.c ****   * @brief This function handles Hard fault interrupt.
  90:Core/Src/stm32f4xx_it.c ****   */
  91:Core/Src/stm32f4xx_it.c **** void HardFault_Handler(void)
  92:Core/Src/stm32f4xx_it.c **** {
  52              		.loc 1 92 1 view -0
  53              		.cfi_startproc
  54              		@ Volatile: function does not return.
  55              		@ args = 0, pretend = 0, frame = 0
  56              		@ frame_needed = 0, uses_anonymous_args = 0
  57              		@ link register save eliminated.
  58              	.L4:
  93:Core/Src/stm32f4xx_it.c ****   /* USER CODE BEGIN HardFault_IRQn 0 */
  94:Core/Src/stm32f4xx_it.c **** 
  95:Core/Src/stm32f4xx_it.c ****   /* USER CODE END HardFault_IRQn 0 */
  96:Core/Src/stm32f4xx_it.c ****   while (1)
  59              		.loc 1 96 3 view .LVU5
  97:Core/Src/stm32f4xx_it.c ****   {
  98:Core/Src/stm32f4xx_it.c ****     /* USER CODE BEGIN W1_HardFault_IRQn 0 */
  99:Core/Src/stm32f4xx_it.c ****     /* USER CODE END W1_HardFault_IRQn 0 */
 100:Core/Src/stm32f4xx_it.c ****   }
  60              		.loc 1 100 3 view .LVU6
  96:Core/Src/stm32f4xx_it.c ****   {
  61              		.loc 1 96 9 view .LVU7
  62 0000 FEE7     		b	.L4
  63              		.cfi_endproc
  64              	.LFE243:
  66              		.section	.text.MemManage_Handler,"ax",%progbits
  67              		.align	1
  68              		.global	MemManage_Handler
  69              		.syntax unified
  70              		.thumb
  71              		.thumb_func
  73              	MemManage_Handler:
  74              	.LFB244:
ARM GAS  C:\Users\valer\AppData\Local\Temp\ccfAub7k.s 			page 4


 101:Core/Src/stm32f4xx_it.c **** }
 102:Core/Src/stm32f4xx_it.c **** 
 103:Core/Src/stm32f4xx_it.c **** /**
 104:Core/Src/stm32f4xx_it.c ****   * @brief This function handles Memory management fault.
 105:Core/Src/stm32f4xx_it.c ****   */
 106:Core/Src/stm32f4xx_it.c **** void MemManage_Handler(void)
 107:Core/Src/stm32f4xx_it.c **** {
  75              		.loc 1 107 1 view -0
  76              		.cfi_startproc
  77              		@ Volatile: function does not return.
  78              		@ args = 0, pretend = 0, frame = 0
  79              		@ frame_needed = 0, uses_anonymous_args = 0
  80              		@ link register save eliminated.
  81              	.L6:
 108:Core/Src/stm32f4xx_it.c ****   /* USER CODE BEGIN MemoryManagement_IRQn 0 */
 109:Core/Src/stm32f4xx_it.c **** 
 110:Core/Src/stm32f4xx_it.c ****   /* USER CODE END MemoryManagement_IRQn 0 */
 111:Core/Src/stm32f4xx_it.c ****   while (1)
  82              		.loc 1 111 3 view .LVU9
 112:Core/Src/stm32f4xx_it.c ****   {
 113:Core/Src/stm32f4xx_it.c ****     /* USER CODE BEGIN W1_MemoryManagement_IRQn 0 */
 114:Core/Src/stm32f4xx_it.c ****     /* USER CODE END W1_MemoryManagement_IRQn 0 */
 115:Core/Src/stm32f4xx_it.c ****   }
  83              		.loc 1 115 3 view .LVU10
 111:Core/Src/stm32f4xx_it.c ****   {
  84              		.loc 1 111 9 view .LVU11
  85 0000 FEE7     		b	.L6
  86              		.cfi_endproc
  87              	.LFE244:
  89              		.section	.text.BusFault_Handler,"ax",%progbits
  90              		.align	1
  91              		.global	BusFault_Handler
  92              		.syntax unified
  93              		.thumb
  94              		.thumb_func
  96              	BusFault_Handler:
  97              	.LFB245:
 116:Core/Src/stm32f4xx_it.c **** }
 117:Core/Src/stm32f4xx_it.c **** 
 118:Core/Src/stm32f4xx_it.c **** /**
 119:Core/Src/stm32f4xx_it.c ****   * @brief This function handles Pre-fetch fault, memory access fault.
 120:Core/Src/stm32f4xx_it.c ****   */
 121:Core/Src/stm32f4xx_it.c **** void BusFault_Handler(void)
 122:Core/Src/stm32f4xx_it.c **** {
  98              		.loc 1 122 1 view -0
  99              		.cfi_startproc
 100              		@ Volatile: function does not return.
 101              		@ args = 0, pretend = 0, frame = 0
 102              		@ frame_needed = 0, uses_anonymous_args = 0
 103              		@ link register save eliminated.
 104              	.L8:
 123:Core/Src/stm32f4xx_it.c ****   /* USER CODE BEGIN BusFault_IRQn 0 */
 124:Core/Src/stm32f4xx_it.c **** 
 125:Core/Src/stm32f4xx_it.c ****   /* USER CODE END BusFault_IRQn 0 */
 126:Core/Src/stm32f4xx_it.c ****   while (1)
 105              		.loc 1 126 3 view .LVU13
 127:Core/Src/stm32f4xx_it.c ****   {
ARM GAS  C:\Users\valer\AppData\Local\Temp\ccfAub7k.s 			page 5


 128:Core/Src/stm32f4xx_it.c ****     /* USER CODE BEGIN W1_BusFault_IRQn 0 */
 129:Core/Src/stm32f4xx_it.c ****     /* USER CODE END W1_BusFault_IRQn 0 */
 130:Core/Src/stm32f4xx_it.c ****   }
 106              		.loc 1 130 3 view .LVU14
 126:Core/Src/stm32f4xx_it.c ****   {
 107              		.loc 1 126 9 view .LVU15
 108 0000 FEE7     		b	.L8
 109              		.cfi_endproc
 110              	.LFE245:
 112              		.section	.text.UsageFault_Handler,"ax",%progbits
 113              		.align	1
 114              		.global	UsageFault_Handler
 115              		.syntax unified
 116              		.thumb
 117              		.thumb_func
 119              	UsageFault_Handler:
 120              	.LFB246:
 131:Core/Src/stm32f4xx_it.c **** }
 132:Core/Src/stm32f4xx_it.c **** 
 133:Core/Src/stm32f4xx_it.c **** /**
 134:Core/Src/stm32f4xx_it.c ****   * @brief This function handles Undefined instruction or illegal state.
 135:Core/Src/stm32f4xx_it.c ****   */
 136:Core/Src/stm32f4xx_it.c **** void UsageFault_Handler(void)
 137:Core/Src/stm32f4xx_it.c **** {
 121              		.loc 1 137 1 view -0
 122              		.cfi_startproc
 123              		@ Volatile: function does not return.
 124              		@ args = 0, pretend = 0, frame = 0
 125              		@ frame_needed = 0, uses_anonymous_args = 0
 126              		@ link register save eliminated.
 127              	.L10:
 138:Core/Src/stm32f4xx_it.c ****   /* USER CODE BEGIN UsageFault_IRQn 0 */
 139:Core/Src/stm32f4xx_it.c **** 
 140:Core/Src/stm32f4xx_it.c ****   /* USER CODE END UsageFault_IRQn 0 */
 141:Core/Src/stm32f4xx_it.c ****   while (1)
 128              		.loc 1 141 3 view .LVU17
 142:Core/Src/stm32f4xx_it.c ****   {
 143:Core/Src/stm32f4xx_it.c ****     /* USER CODE BEGIN W1_UsageFault_IRQn 0 */
 144:Core/Src/stm32f4xx_it.c ****     /* USER CODE END W1_UsageFault_IRQn 0 */
 145:Core/Src/stm32f4xx_it.c ****   }
 129              		.loc 1 145 3 view .LVU18
 141:Core/Src/stm32f4xx_it.c ****   {
 130              		.loc 1 141 9 view .LVU19
 131 0000 FEE7     		b	.L10
 132              		.cfi_endproc
 133              	.LFE246:
 135              		.section	.text.SVC_Handler,"ax",%progbits
 136              		.align	1
 137              		.global	SVC_Handler
 138              		.syntax unified
 139              		.thumb
 140              		.thumb_func
 142              	SVC_Handler:
 143              	.LFB247:
 146:Core/Src/stm32f4xx_it.c **** }
 147:Core/Src/stm32f4xx_it.c **** 
 148:Core/Src/stm32f4xx_it.c **** /**
ARM GAS  C:\Users\valer\AppData\Local\Temp\ccfAub7k.s 			page 6


 149:Core/Src/stm32f4xx_it.c ****   * @brief This function handles System service call via SWI instruction.
 150:Core/Src/stm32f4xx_it.c ****   */
 151:Core/Src/stm32f4xx_it.c **** void SVC_Handler(void)
 152:Core/Src/stm32f4xx_it.c **** {
 144              		.loc 1 152 1 view -0
 145              		.cfi_startproc
 146              		@ args = 0, pretend = 0, frame = 0
 147              		@ frame_needed = 0, uses_anonymous_args = 0
 148              		@ link register save eliminated.
 153:Core/Src/stm32f4xx_it.c ****   /* USER CODE BEGIN SVCall_IRQn 0 */
 154:Core/Src/stm32f4xx_it.c **** 
 155:Core/Src/stm32f4xx_it.c ****   /* USER CODE END SVCall_IRQn 0 */
 156:Core/Src/stm32f4xx_it.c ****   /* USER CODE BEGIN SVCall_IRQn 1 */
 157:Core/Src/stm32f4xx_it.c **** 
 158:Core/Src/stm32f4xx_it.c ****   /* USER CODE END SVCall_IRQn 1 */
 159:Core/Src/stm32f4xx_it.c **** }
 149              		.loc 1 159 1 view .LVU21
 150 0000 7047     		bx	lr
 151              		.cfi_endproc
 152              	.LFE247:
 154              		.section	.text.DebugMon_Handler,"ax",%progbits
 155              		.align	1
 156              		.global	DebugMon_Handler
 157              		.syntax unified
 158              		.thumb
 159              		.thumb_func
 161              	DebugMon_Handler:
 162              	.LFB248:
 160:Core/Src/stm32f4xx_it.c **** 
 161:Core/Src/stm32f4xx_it.c **** /**
 162:Core/Src/stm32f4xx_it.c ****   * @brief This function handles Debug monitor.
 163:Core/Src/stm32f4xx_it.c ****   */
 164:Core/Src/stm32f4xx_it.c **** void DebugMon_Handler(void)
 165:Core/Src/stm32f4xx_it.c **** {
 163              		.loc 1 165 1 view -0
 164              		.cfi_startproc
 165              		@ args = 0, pretend = 0, frame = 0
 166              		@ frame_needed = 0, uses_anonymous_args = 0
 167              		@ link register save eliminated.
 166:Core/Src/stm32f4xx_it.c ****   /* USER CODE BEGIN DebugMonitor_IRQn 0 */
 167:Core/Src/stm32f4xx_it.c **** 
 168:Core/Src/stm32f4xx_it.c ****   /* USER CODE END DebugMonitor_IRQn 0 */
 169:Core/Src/stm32f4xx_it.c ****   /* USER CODE BEGIN DebugMonitor_IRQn 1 */
 170:Core/Src/stm32f4xx_it.c **** 
 171:Core/Src/stm32f4xx_it.c ****   /* USER CODE END DebugMonitor_IRQn 1 */
 172:Core/Src/stm32f4xx_it.c **** }
 168              		.loc 1 172 1 view .LVU23
 169 0000 7047     		bx	lr
 170              		.cfi_endproc
 171              	.LFE248:
 173              		.section	.text.PendSV_Handler,"ax",%progbits
 174              		.align	1
 175              		.global	PendSV_Handler
 176              		.syntax unified
 177              		.thumb
 178              		.thumb_func
 180              	PendSV_Handler:
ARM GAS  C:\Users\valer\AppData\Local\Temp\ccfAub7k.s 			page 7


 181              	.LFB249:
 173:Core/Src/stm32f4xx_it.c **** 
 174:Core/Src/stm32f4xx_it.c **** /**
 175:Core/Src/stm32f4xx_it.c ****   * @brief This function handles Pendable request for system service.
 176:Core/Src/stm32f4xx_it.c ****   */
 177:Core/Src/stm32f4xx_it.c **** void PendSV_Handler(void)
 178:Core/Src/stm32f4xx_it.c **** {
 182              		.loc 1 178 1 view -0
 183              		.cfi_startproc
 184              		@ args = 0, pretend = 0, frame = 0
 185              		@ frame_needed = 0, uses_anonymous_args = 0
 186              		@ link register save eliminated.
 179:Core/Src/stm32f4xx_it.c ****   /* USER CODE BEGIN PendSV_IRQn 0 */
 180:Core/Src/stm32f4xx_it.c **** 
 181:Core/Src/stm32f4xx_it.c ****   /* USER CODE END PendSV_IRQn 0 */
 182:Core/Src/stm32f4xx_it.c ****   /* USER CODE BEGIN PendSV_IRQn 1 */
 183:Core/Src/stm32f4xx_it.c **** 
 184:Core/Src/stm32f4xx_it.c ****   /* USER CODE END PendSV_IRQn 1 */
 185:Core/Src/stm32f4xx_it.c **** }
 187              		.loc 1 185 1 view .LVU25
 188 0000 7047     		bx	lr
 189              		.cfi_endproc
 190              	.LFE249:
 192              		.section	.text.SysTick_Handler,"ax",%progbits
 193              		.align	1
 194              		.global	SysTick_Handler
 195              		.syntax unified
 196              		.thumb
 197              		.thumb_func
 199              	SysTick_Handler:
 200              	.LFB250:
 186:Core/Src/stm32f4xx_it.c **** 
 187:Core/Src/stm32f4xx_it.c **** /**
 188:Core/Src/stm32f4xx_it.c ****   * @brief This function handles System tick timer.
 189:Core/Src/stm32f4xx_it.c ****   */
 190:Core/Src/stm32f4xx_it.c **** void SysTick_Handler(void)
 191:Core/Src/stm32f4xx_it.c **** {
 201              		.loc 1 191 1 view -0
 202              		.cfi_startproc
 203              		@ args = 0, pretend = 0, frame = 0
 204              		@ frame_needed = 0, uses_anonymous_args = 0
 205 0000 08B5     		push	{r3, lr}
 206              		.cfi_def_cfa_offset 8
 207              		.cfi_offset 3, -8
 208              		.cfi_offset 14, -4
 192:Core/Src/stm32f4xx_it.c ****   /* USER CODE BEGIN SysTick_IRQn 0 */
 193:Core/Src/stm32f4xx_it.c **** 
 194:Core/Src/stm32f4xx_it.c ****   /* USER CODE END SysTick_IRQn 0 */
 195:Core/Src/stm32f4xx_it.c ****   HAL_IncTick();
 209              		.loc 1 195 3 view .LVU27
 210 0002 FFF7FEFF 		bl	HAL_IncTick
 211              	.LVL0:
 196:Core/Src/stm32f4xx_it.c ****   /* USER CODE BEGIN SysTick_IRQn 1 */
 197:Core/Src/stm32f4xx_it.c **** 
 198:Core/Src/stm32f4xx_it.c ****   /* USER CODE END SysTick_IRQn 1 */
 199:Core/Src/stm32f4xx_it.c **** }
 212              		.loc 1 199 1 is_stmt 0 view .LVU28
ARM GAS  C:\Users\valer\AppData\Local\Temp\ccfAub7k.s 			page 8


 213 0006 08BD     		pop	{r3, pc}
 214              		.cfi_endproc
 215              	.LFE250:
 217              		.section	.rodata.EXTI0_IRQHandler.str1.4,"aMS",%progbits,1
 218              		.align	2
 219              	.LC0:
 220 0000 44696769 		.ascii	"Digital: %d\015\012\000"
 220      74616C3A 
 220      2025640D 
 220      0A00
 221              		.section	.text.EXTI0_IRQHandler,"ax",%progbits
 222              		.align	1
 223              		.global	EXTI0_IRQHandler
 224              		.syntax unified
 225              		.thumb
 226              		.thumb_func
 228              	EXTI0_IRQHandler:
 229              	.LFB251:
 200:Core/Src/stm32f4xx_it.c **** 
 201:Core/Src/stm32f4xx_it.c **** /******************************************************************************/
 202:Core/Src/stm32f4xx_it.c **** /* STM32F4xx Peripheral Interrupt Handlers                                    */
 203:Core/Src/stm32f4xx_it.c **** /* Add here the Interrupt Handlers for the used peripherals.                  */
 204:Core/Src/stm32f4xx_it.c **** /* For the available peripheral interrupt handler names,                      */
 205:Core/Src/stm32f4xx_it.c **** /* please refer to the startup file (startup_stm32f4xx.s).                    */
 206:Core/Src/stm32f4xx_it.c **** /******************************************************************************/
 207:Core/Src/stm32f4xx_it.c **** 
 208:Core/Src/stm32f4xx_it.c **** /**
 209:Core/Src/stm32f4xx_it.c ****   * @brief This function handles EXTI line 0 interrupt.
 210:Core/Src/stm32f4xx_it.c ****   */
 211:Core/Src/stm32f4xx_it.c **** void EXTI0_IRQHandler(void)
 212:Core/Src/stm32f4xx_it.c **** {
 230              		.loc 1 212 1 is_stmt 1 view -0
 231              		.cfi_startproc
 232              		@ args = 0, pretend = 0, frame = 56
 233              		@ frame_needed = 0, uses_anonymous_args = 0
 234 0000 00B5     		push	{lr}
 235              		.cfi_def_cfa_offset 4
 236              		.cfi_offset 14, -4
 237 0002 8FB0     		sub	sp, sp, #60
 238              		.cfi_def_cfa_offset 64
 213:Core/Src/stm32f4xx_it.c ****   /* USER CODE BEGIN EXTI0_IRQn 0 */
 214:Core/Src/stm32f4xx_it.c **** 
 215:Core/Src/stm32f4xx_it.c ****   // Vedi code begin 0 e 1 per gestire rising falling
 216:Core/Src/stm32f4xx_it.c **** 
 217:Core/Src/stm32f4xx_it.c ****   // Leggi lo stato del sensore digitale
 218:Core/Src/stm32f4xx_it.c ****   int digital_value = HAL_GPIO_ReadPin(GPIOA, GPIO_PIN_0); 
 239              		.loc 1 218 3 view .LVU30
 240              		.loc 1 218 23 is_stmt 0 view .LVU31
 241 0004 0121     		movs	r1, #1
 242 0006 0C48     		ldr	r0, .L18
 243 0008 FFF7FEFF 		bl	HAL_GPIO_ReadPin
 244              	.LVL1:
 245 000c 0246     		mov	r2, r0
 246              	.LVL2:
 219:Core/Src/stm32f4xx_it.c **** 
 220:Core/Src/stm32f4xx_it.c ****   char msg[50];  // Buffer per inviare messaggi via UART
 247              		.loc 1 220 3 is_stmt 1 view .LVU32
ARM GAS  C:\Users\valer\AppData\Local\Temp\ccfAub7k.s 			page 9


 221:Core/Src/stm32f4xx_it.c **** 
 222:Core/Src/stm32f4xx_it.c ****   // Invia il valore digitale via UART
 223:Core/Src/stm32f4xx_it.c ****   sprintf(msg, "Digital: %d\r\n", digital_value);
 248              		.loc 1 223 3 view .LVU33
 249 000e 0B49     		ldr	r1, .L18+4
 250 0010 01A8     		add	r0, sp, #4
 251              	.LVL3:
 252              		.loc 1 223 3 is_stmt 0 view .LVU34
 253 0012 FFF7FEFF 		bl	sprintf
 254              	.LVL4:
 224:Core/Src/stm32f4xx_it.c ****   HAL_UART_Transmit(&huart2, (uint8_t*)msg, strlen(msg), HAL_MAX_DELAY);
 255              		.loc 1 224 3 is_stmt 1 view .LVU35
 256              		.loc 1 224 45 is_stmt 0 view .LVU36
 257 0016 01A8     		add	r0, sp, #4
 258 0018 FFF7FEFF 		bl	strlen
 259              	.LVL5:
 260              		.loc 1 224 3 discriminator 1 view .LVU37
 261 001c 4FF0FF33 		mov	r3, #-1
 262 0020 82B2     		uxth	r2, r0
 263 0022 01A9     		add	r1, sp, #4
 264 0024 0648     		ldr	r0, .L18+8
 265 0026 FFF7FEFF 		bl	HAL_UART_Transmit
 266              	.LVL6:
 225:Core/Src/stm32f4xx_it.c ****     
 226:Core/Src/stm32f4xx_it.c ****   /* USER CODE END EXTI0_IRQn 0 */
 227:Core/Src/stm32f4xx_it.c ****   HAL_GPIO_EXTI_IRQHandler(GPIO_PIN_0);
 267              		.loc 1 227 3 is_stmt 1 view .LVU38
 268 002a 0120     		movs	r0, #1
 269 002c FFF7FEFF 		bl	HAL_GPIO_EXTI_IRQHandler
 270              	.LVL7:
 228:Core/Src/stm32f4xx_it.c ****   /* USER CODE BEGIN EXTI0_IRQn 1 */
 229:Core/Src/stm32f4xx_it.c **** 
 230:Core/Src/stm32f4xx_it.c ****   /* USER CODE END EXTI0_IRQn 1 */
 231:Core/Src/stm32f4xx_it.c **** }
 271              		.loc 1 231 1 is_stmt 0 view .LVU39
 272 0030 0FB0     		add	sp, sp, #60
 273              		.cfi_def_cfa_offset 4
 274              		@ sp needed
 275 0032 5DF804FB 		ldr	pc, [sp], #4
 276              	.L19:
 277 0036 00BF     		.align	2
 278              	.L18:
 279 0038 00000240 		.word	1073872896
 280 003c 00000000 		.word	.LC0
 281 0040 00000000 		.word	huart2
 282              		.cfi_endproc
 283              	.LFE251:
 285              		.section	.text.TIM2_IRQHandler,"ax",%progbits
 286              		.align	1
 287              		.global	TIM2_IRQHandler
 288              		.syntax unified
 289              		.thumb
 290              		.thumb_func
 292              	TIM2_IRQHandler:
 293              	.LFB252:
 232:Core/Src/stm32f4xx_it.c **** 
 233:Core/Src/stm32f4xx_it.c **** /**
ARM GAS  C:\Users\valer\AppData\Local\Temp\ccfAub7k.s 			page 10


 234:Core/Src/stm32f4xx_it.c ****   * @brief This function handles TIM2 global interrupt.
 235:Core/Src/stm32f4xx_it.c ****   */
 236:Core/Src/stm32f4xx_it.c **** void TIM2_IRQHandler(void)
 237:Core/Src/stm32f4xx_it.c **** {
 294              		.loc 1 237 1 is_stmt 1 view -0
 295              		.cfi_startproc
 296              		@ args = 0, pretend = 0, frame = 0
 297              		@ frame_needed = 0, uses_anonymous_args = 0
 298 0000 08B5     		push	{r3, lr}
 299              		.cfi_def_cfa_offset 8
 300              		.cfi_offset 3, -8
 301              		.cfi_offset 14, -4
 238:Core/Src/stm32f4xx_it.c ****   /* USER CODE BEGIN TIM2_IRQn 0 */
 239:Core/Src/stm32f4xx_it.c ****   //timer 1000ms
 240:Core/Src/stm32f4xx_it.c **** 
 241:Core/Src/stm32f4xx_it.c ****   /* USER CODE END TIM2_IRQn 0 */
 242:Core/Src/stm32f4xx_it.c ****   HAL_TIM_IRQHandler(&htim2);
 302              		.loc 1 242 3 view .LVU41
 303 0002 0248     		ldr	r0, .L22
 304 0004 FFF7FEFF 		bl	HAL_TIM_IRQHandler
 305              	.LVL8:
 243:Core/Src/stm32f4xx_it.c ****   /* USER CODE BEGIN TIM2_IRQn 1 */
 244:Core/Src/stm32f4xx_it.c **** 
 245:Core/Src/stm32f4xx_it.c ****   /* USER CODE END TIM2_IRQn 1 */
 246:Core/Src/stm32f4xx_it.c **** }
 306              		.loc 1 246 1 is_stmt 0 view .LVU42
 307 0008 08BD     		pop	{r3, pc}
 308              	.L23:
 309 000a 00BF     		.align	2
 310              	.L22:
 311 000c 00000000 		.word	htim2
 312              		.cfi_endproc
 313              	.LFE252:
 315              		.section	.text.TIM3_IRQHandler,"ax",%progbits
 316              		.align	1
 317              		.global	TIM3_IRQHandler
 318              		.syntax unified
 319              		.thumb
 320              		.thumb_func
 322              	TIM3_IRQHandler:
 323              	.LFB253:
 247:Core/Src/stm32f4xx_it.c **** 
 248:Core/Src/stm32f4xx_it.c **** /**
 249:Core/Src/stm32f4xx_it.c ****   * @brief This function handles TIM3 global interrupt.
 250:Core/Src/stm32f4xx_it.c ****   */
 251:Core/Src/stm32f4xx_it.c **** void TIM3_IRQHandler(void)
 252:Core/Src/stm32f4xx_it.c **** {
 324              		.loc 1 252 1 is_stmt 1 view -0
 325              		.cfi_startproc
 326              		@ args = 0, pretend = 0, frame = 0
 327              		@ frame_needed = 0, uses_anonymous_args = 0
 328 0000 08B5     		push	{r3, lr}
 329              		.cfi_def_cfa_offset 8
 330              		.cfi_offset 3, -8
 331              		.cfi_offset 14, -4
 253:Core/Src/stm32f4xx_it.c ****   /* USER CODE BEGIN TIM3_IRQn 0 */
 254:Core/Src/stm32f4xx_it.c ****   //timer 50ms
ARM GAS  C:\Users\valer\AppData\Local\Temp\ccfAub7k.s 			page 11


 255:Core/Src/stm32f4xx_it.c **** 
 256:Core/Src/stm32f4xx_it.c ****   /* USER CODE END TIM3_IRQn 0 */
 257:Core/Src/stm32f4xx_it.c ****   HAL_TIM_IRQHandler(&htim3);
 332              		.loc 1 257 3 view .LVU44
 333 0002 0248     		ldr	r0, .L26
 334 0004 FFF7FEFF 		bl	HAL_TIM_IRQHandler
 335              	.LVL9:
 258:Core/Src/stm32f4xx_it.c ****   /* USER CODE BEGIN TIM3_IRQn 1 */
 259:Core/Src/stm32f4xx_it.c **** 
 260:Core/Src/stm32f4xx_it.c ****   /* USER CODE END TIM3_IRQn 1 */
 261:Core/Src/stm32f4xx_it.c **** }
 336              		.loc 1 261 1 is_stmt 0 view .LVU45
 337 0008 08BD     		pop	{r3, pc}
 338              	.L27:
 339 000a 00BF     		.align	2
 340              	.L26:
 341 000c 00000000 		.word	htim3
 342              		.cfi_endproc
 343              	.LFE253:
 345              		.section	.text.EXTI15_10_IRQHandler,"ax",%progbits
 346              		.align	1
 347              		.global	EXTI15_10_IRQHandler
 348              		.syntax unified
 349              		.thumb
 350              		.thumb_func
 352              	EXTI15_10_IRQHandler:
 353              	.LFB254:
 262:Core/Src/stm32f4xx_it.c **** 
 263:Core/Src/stm32f4xx_it.c **** /**
 264:Core/Src/stm32f4xx_it.c ****   * @brief This function handles EXTI line[15:10] interrupts.
 265:Core/Src/stm32f4xx_it.c ****   */
 266:Core/Src/stm32f4xx_it.c **** void EXTI15_10_IRQHandler(void)
 267:Core/Src/stm32f4xx_it.c **** {
 354              		.loc 1 267 1 is_stmt 1 view -0
 355              		.cfi_startproc
 356              		@ args = 0, pretend = 0, frame = 0
 357              		@ frame_needed = 0, uses_anonymous_args = 0
 358 0000 08B5     		push	{r3, lr}
 359              		.cfi_def_cfa_offset 8
 360              		.cfi_offset 3, -8
 361              		.cfi_offset 14, -4
 268:Core/Src/stm32f4xx_it.c ****   /* USER CODE BEGIN EXTI15_10_IRQn 0 */
 269:Core/Src/stm32f4xx_it.c **** 
 270:Core/Src/stm32f4xx_it.c ****   /* USER CODE END EXTI15_10_IRQn 0 */
 271:Core/Src/stm32f4xx_it.c ****   HAL_GPIO_EXTI_IRQHandler(B1_Pin);
 362              		.loc 1 271 3 view .LVU47
 363 0002 4FF40050 		mov	r0, #8192
 364 0006 FFF7FEFF 		bl	HAL_GPIO_EXTI_IRQHandler
 365              	.LVL10:
 272:Core/Src/stm32f4xx_it.c ****   /* USER CODE BEGIN EXTI15_10_IRQn 1 */
 273:Core/Src/stm32f4xx_it.c **** 
 274:Core/Src/stm32f4xx_it.c ****   /* USER CODE END EXTI15_10_IRQn 1 */
 275:Core/Src/stm32f4xx_it.c **** }
 366              		.loc 1 275 1 is_stmt 0 view .LVU48
 367 000a 08BD     		pop	{r3, pc}
 368              		.cfi_endproc
 369              	.LFE254:
ARM GAS  C:\Users\valer\AppData\Local\Temp\ccfAub7k.s 			page 12


 371              		.section	.text.DMA2_Stream0_IRQHandler,"ax",%progbits
 372              		.align	1
 373              		.global	DMA2_Stream0_IRQHandler
 374              		.syntax unified
 375              		.thumb
 376              		.thumb_func
 378              	DMA2_Stream0_IRQHandler:
 379              	.LFB255:
 276:Core/Src/stm32f4xx_it.c **** 
 277:Core/Src/stm32f4xx_it.c **** /**
 278:Core/Src/stm32f4xx_it.c ****   * @brief This function handles DMA2 stream0 global interrupt.
 279:Core/Src/stm32f4xx_it.c ****   */
 280:Core/Src/stm32f4xx_it.c **** void DMA2_Stream0_IRQHandler(void)
 281:Core/Src/stm32f4xx_it.c **** {
 380              		.loc 1 281 1 is_stmt 1 view -0
 381              		.cfi_startproc
 382              		@ args = 0, pretend = 0, frame = 0
 383              		@ frame_needed = 0, uses_anonymous_args = 0
 384 0000 08B5     		push	{r3, lr}
 385              		.cfi_def_cfa_offset 8
 386              		.cfi_offset 3, -8
 387              		.cfi_offset 14, -4
 282:Core/Src/stm32f4xx_it.c ****   /* USER CODE BEGIN DMA2_Stream0_IRQn 0 */
 283:Core/Src/stm32f4xx_it.c **** 
 284:Core/Src/stm32f4xx_it.c ****   /* USER CODE END DMA2_Stream0_IRQn 0 */
 285:Core/Src/stm32f4xx_it.c ****   HAL_DMA_IRQHandler(&hdma_adc1);
 388              		.loc 1 285 3 view .LVU50
 389 0002 0748     		ldr	r0, .L34
 390 0004 FFF7FEFF 		bl	HAL_DMA_IRQHandler
 391              	.LVL11:
 286:Core/Src/stm32f4xx_it.c ****   /* USER CODE BEGIN DMA2_Stream0_IRQn 1 */
 287:Core/Src/stm32f4xx_it.c ****   if(HAL_GPIO_ReadPin(GPIOB, GPIO_PIN_13)){
 392              		.loc 1 287 3 view .LVU51
 393              		.loc 1 287 6 is_stmt 0 view .LVU52
 394 0008 4FF40051 		mov	r1, #8192
 395 000c 0548     		ldr	r0, .L34+4
 396 000e FFF7FEFF 		bl	HAL_GPIO_ReadPin
 397              	.LVL12:
 398              		.loc 1 287 5 discriminator 1 view .LVU53
 399 0012 00B9     		cbnz	r0, .L33
 400              	.L30:
 288:Core/Src/stm32f4xx_it.c ****     button_pressed(&fsm);
 289:Core/Src/stm32f4xx_it.c ****   }
 290:Core/Src/stm32f4xx_it.c ****   /* USER CODE END DMA2_Stream0_IRQn 1 */
 291:Core/Src/stm32f4xx_it.c **** }
 401              		.loc 1 291 1 view .LVU54
 402 0014 08BD     		pop	{r3, pc}
 403              	.L33:
 288:Core/Src/stm32f4xx_it.c ****     button_pressed(&fsm);
 404              		.loc 1 288 5 is_stmt 1 view .LVU55
 405 0016 0448     		ldr	r0, .L34+8
 406 0018 FFF7FEFF 		bl	button_pressed
 407              	.LVL13:
 408              		.loc 1 291 1 is_stmt 0 view .LVU56
 409 001c FAE7     		b	.L30
 410              	.L35:
 411 001e 00BF     		.align	2
ARM GAS  C:\Users\valer\AppData\Local\Temp\ccfAub7k.s 			page 13


 412              	.L34:
 413 0020 00000000 		.word	hdma_adc1
 414 0024 00040240 		.word	1073873920
 415 0028 00000000 		.word	fsm
 416              		.cfi_endproc
 417              	.LFE255:
 419              		.text
 420              	.Letext0:
 421              		.file 2 "C:/Users/valer/AppData/Roaming/Code/User/globalStorage/bmd.stm32-for-vscode/@xpack-dev-to
 422              		.file 3 "C:/Users/valer/AppData/Roaming/Code/User/globalStorage/bmd.stm32-for-vscode/@xpack-dev-to
 423              		.file 4 "Drivers/CMSIS/Device/ST/STM32F4xx/Include/stm32f446xx.h"
 424              		.file 5 "C:/Users/valer/AppData/Roaming/Code/User/globalStorage/bmd.stm32-for-vscode/@xpack-dev-to
 425              		.file 6 "Drivers/STM32F4xx_HAL_Driver/Inc/stm32f4xx_hal_def.h"
 426              		.file 7 "Drivers/STM32F4xx_HAL_Driver/Inc/stm32f4xx_hal_gpio.h"
 427              		.file 8 "Drivers/STM32F4xx_HAL_Driver/Inc/stm32f4xx_hal_dma.h"
 428              		.file 9 "Drivers/STM32F4xx_HAL_Driver/Inc/stm32f4xx_hal_tim.h"
 429              		.file 10 "Drivers/STM32F4xx_HAL_Driver/Inc/stm32f4xx_hal_uart.h"
 430              		.file 11 "Core/Inc/fsm_controller.h"
 431              		.file 12 "C:/Users/valer/AppData/Roaming/Code/User/globalStorage/bmd.stm32-for-vscode/@xpack-dev-t
 432              		.file 13 "C:/Users/valer/AppData/Roaming/Code/User/globalStorage/bmd.stm32-for-vscode/@xpack-dev-t
 433              		.file 14 "Drivers/STM32F4xx_HAL_Driver/Inc/stm32f4xx_hal.h"
ARM GAS  C:\Users\valer\AppData\Local\Temp\ccfAub7k.s 			page 14


DEFINED SYMBOLS
                            *ABS*:00000000 stm32f4xx_it.c
C:\Users\valer\AppData\Local\Temp\ccfAub7k.s:21     .text.NMI_Handler:00000000 $t
C:\Users\valer\AppData\Local\Temp\ccfAub7k.s:27     .text.NMI_Handler:00000000 NMI_Handler
C:\Users\valer\AppData\Local\Temp\ccfAub7k.s:44     .text.HardFault_Handler:00000000 $t
C:\Users\valer\AppData\Local\Temp\ccfAub7k.s:50     .text.HardFault_Handler:00000000 HardFault_Handler
C:\Users\valer\AppData\Local\Temp\ccfAub7k.s:67     .text.MemManage_Handler:00000000 $t
C:\Users\valer\AppData\Local\Temp\ccfAub7k.s:73     .text.MemManage_Handler:00000000 MemManage_Handler
C:\Users\valer\AppData\Local\Temp\ccfAub7k.s:90     .text.BusFault_Handler:00000000 $t
C:\Users\valer\AppData\Local\Temp\ccfAub7k.s:96     .text.BusFault_Handler:00000000 BusFault_Handler
C:\Users\valer\AppData\Local\Temp\ccfAub7k.s:113    .text.UsageFault_Handler:00000000 $t
C:\Users\valer\AppData\Local\Temp\ccfAub7k.s:119    .text.UsageFault_Handler:00000000 UsageFault_Handler
C:\Users\valer\AppData\Local\Temp\ccfAub7k.s:136    .text.SVC_Handler:00000000 $t
C:\Users\valer\AppData\Local\Temp\ccfAub7k.s:142    .text.SVC_Handler:00000000 SVC_Handler
C:\Users\valer\AppData\Local\Temp\ccfAub7k.s:155    .text.DebugMon_Handler:00000000 $t
C:\Users\valer\AppData\Local\Temp\ccfAub7k.s:161    .text.DebugMon_Handler:00000000 DebugMon_Handler
C:\Users\valer\AppData\Local\Temp\ccfAub7k.s:174    .text.PendSV_Handler:00000000 $t
C:\Users\valer\AppData\Local\Temp\ccfAub7k.s:180    .text.PendSV_Handler:00000000 PendSV_Handler
C:\Users\valer\AppData\Local\Temp\ccfAub7k.s:193    .text.SysTick_Handler:00000000 $t
C:\Users\valer\AppData\Local\Temp\ccfAub7k.s:199    .text.SysTick_Handler:00000000 SysTick_Handler
C:\Users\valer\AppData\Local\Temp\ccfAub7k.s:218    .rodata.EXTI0_IRQHandler.str1.4:00000000 $d
C:\Users\valer\AppData\Local\Temp\ccfAub7k.s:222    .text.EXTI0_IRQHandler:00000000 $t
C:\Users\valer\AppData\Local\Temp\ccfAub7k.s:228    .text.EXTI0_IRQHandler:00000000 EXTI0_IRQHandler
C:\Users\valer\AppData\Local\Temp\ccfAub7k.s:279    .text.EXTI0_IRQHandler:00000038 $d
C:\Users\valer\AppData\Local\Temp\ccfAub7k.s:286    .text.TIM2_IRQHandler:00000000 $t
C:\Users\valer\AppData\Local\Temp\ccfAub7k.s:292    .text.TIM2_IRQHandler:00000000 TIM2_IRQHandler
C:\Users\valer\AppData\Local\Temp\ccfAub7k.s:311    .text.TIM2_IRQHandler:0000000c $d
C:\Users\valer\AppData\Local\Temp\ccfAub7k.s:316    .text.TIM3_IRQHandler:00000000 $t
C:\Users\valer\AppData\Local\Temp\ccfAub7k.s:322    .text.TIM3_IRQHandler:00000000 TIM3_IRQHandler
C:\Users\valer\AppData\Local\Temp\ccfAub7k.s:341    .text.TIM3_IRQHandler:0000000c $d
C:\Users\valer\AppData\Local\Temp\ccfAub7k.s:346    .text.EXTI15_10_IRQHandler:00000000 $t
C:\Users\valer\AppData\Local\Temp\ccfAub7k.s:352    .text.EXTI15_10_IRQHandler:00000000 EXTI15_10_IRQHandler
C:\Users\valer\AppData\Local\Temp\ccfAub7k.s:372    .text.DMA2_Stream0_IRQHandler:00000000 $t
C:\Users\valer\AppData\Local\Temp\ccfAub7k.s:378    .text.DMA2_Stream0_IRQHandler:00000000 DMA2_Stream0_IRQHandler
C:\Users\valer\AppData\Local\Temp\ccfAub7k.s:413    .text.DMA2_Stream0_IRQHandler:00000020 $d

UNDEFINED SYMBOLS
HAL_IncTick
HAL_GPIO_ReadPin
sprintf
strlen
HAL_UART_Transmit
HAL_GPIO_EXTI_IRQHandler
huart2
HAL_TIM_IRQHandler
htim2
htim3
HAL_DMA_IRQHandler
button_pressed
hdma_adc1
fsm
